SF:/workspaces/digby/src/aes_128_gcm_sanity.rs
FN:25,_RNvMNtCskvx6Wg1ZZUs_5digby18aes_128_gcm_sanityNtB2_15Aes128GcmSanity12decrypt_page
FN:12,_RNvMNtCskvx6Wg1ZZUs_5digby18aes_128_gcm_sanityNtB2_15Aes128GcmSanity12encrypt_page
FN:25,_RNvMNtCsgKx49t2KK1I_5digby18aes_128_gcm_sanityNtB2_15Aes128GcmSanity12decrypt_page
FN:12,_RNvMNtCsgKx49t2KK1I_5digby18aes_128_gcm_sanityNtB2_15Aes128GcmSanity12encrypt_page
FNDA:12,_RNvMNtCskvx6Wg1ZZUs_5digby18aes_128_gcm_sanityNtB2_15Aes128GcmSanity12decrypt_page
FNDA:30,_RNvMNtCskvx6Wg1ZZUs_5digby18aes_128_gcm_sanityNtB2_15Aes128GcmSanity12encrypt_page
FNDA:0,_RNvMNtCsgKx49t2KK1I_5digby18aes_128_gcm_sanityNtB2_15Aes128GcmSanity12decrypt_page
FNDA:0,_RNvMNtCsgKx49t2KK1I_5digby18aes_128_gcm_sanityNtB2_15Aes128GcmSanity12encrypt_page
FNF:2
FNH:2
DA:12,30
DA:13,30
DA:14,30
DA:15,30
DA:16,30
DA:17,30
DA:18,30
DA:19,30
DA:20,30
DA:21,30
DA:22,30
DA:23,30
DA:25,12
DA:26,12
DA:27,12
DA:28,12
DA:29,12
DA:30,12
DA:31,12
DA:32,12
DA:33,12
DA:34,12
DA:35,12
BRF:0
BRH:0
LF:23
LH:23
end_of_record
SF:/workspaces/digby/src/block_layer.rs
FN:213,_RNvNtNtCskvx6Wg1ZZUs_5digby11block_layer5testss_21test_create_new_pages
FN:227,_RNvNtNtCskvx6Wg1ZZUs_5digby11block_layer5testss_23test_create_header_page
FN:163,_RNvNtNtCskvx6Wg1ZZUs_5digby11block_layer5testss_24test_block_layer_put_get
FN:200,_RNvNtNtCskvx6Wg1ZZUs_5digby11block_layer5testss_30test_block_out_side_page_range
FN:180,_RNvNtNtCskvx6Wg1ZZUs_5digby11block_layer5testss_34test_block_layer_put_get_encrypted
FN:137,_RNvMNtCskvx6Wg1ZZUs_5digby11block_layerNtB2_10BlockLayer10set_sanity
FN:104,_RNvMNtCskvx6Wg1ZZUs_5digby11block_layerNtB2_10BlockLayer10write_page
FN:141,_RNvMNtCskvx6Wg1ZZUs_5digby11block_layerNtB2_10BlockLayer12check_sanity
FN:67,_RNvMNtCskvx6Wg1ZZUs_5digby11block_layerNtB2_10BlockLayer12new_with_key
FN:87,_RNvMNtCskvx6Wg1ZZUs_5digby11block_layerNtB2_10BlockLayer15get_page_config
FN:121,_RNvMNtCskvx6Wg1ZZUs_5digby11block_layerNtB2_10BlockLayer19generate_free_pages
FN:100,_RNvMNtCskvx6Wg1ZZUs_5digby11block_layerNtB2_10BlockLayer20get_total_page_count
FN:55,_RNvMNtCskvx6Wg1ZZUs_5digby11block_layerNtB2_10BlockLayer3new
FN:149,_RNvMNtCskvx6Wg1ZZUs_5digby11block_layerNtB2_10BlockLayer8sync_all
FN:91,_RNvMNtCskvx6Wg1ZZUs_5digby11block_layerNtB2_10BlockLayer9read_page
FN:145,_RNvMNtCskvx6Wg1ZZUs_5digby11block_layerNtB2_10BlockLayer9sync_data
FN:137,_RNvMNtCsgKx49t2KK1I_5digby11block_layerNtB2_10BlockLayer10set_sanity
FN:104,_RNvMNtCsgKx49t2KK1I_5digby11block_layerNtB2_10BlockLayer10write_page
FN:141,_RNvMNtCsgKx49t2KK1I_5digby11block_layerNtB2_10BlockLayer12check_sanity
FN:67,_RNvMNtCsgKx49t2KK1I_5digby11block_layerNtB2_10BlockLayer12new_with_key
FN:87,_RNvMNtCsgKx49t2KK1I_5digby11block_layerNtB2_10BlockLayer15get_page_config
FN:121,_RNvMNtCsgKx49t2KK1I_5digby11block_layerNtB2_10BlockLayer19generate_free_pages
FN:100,_RNvMNtCsgKx49t2KK1I_5digby11block_layerNtB2_10BlockLayer20get_total_page_count
FN:55,_RNvMNtCsgKx49t2KK1I_5digby11block_layerNtB2_10BlockLayer3new
FN:149,_RNvMNtCsgKx49t2KK1I_5digby11block_layerNtB2_10BlockLayer8sync_all
FN:91,_RNvMNtCsgKx49t2KK1I_5digby11block_layerNtB2_10BlockLayer9read_page
FN:145,_RNvMNtCsgKx49t2KK1I_5digby11block_layerNtB2_10BlockLayer9sync_data
FNDA:1,_RNvNtNtCskvx6Wg1ZZUs_5digby11block_layer5testss_21test_create_new_pages
FNDA:1,_RNvNtNtCskvx6Wg1ZZUs_5digby11block_layer5testss_23test_create_header_page
FNDA:1,_RNvNtNtCskvx6Wg1ZZUs_5digby11block_layer5testss_24test_block_layer_put_get
FNDA:1,_RNvNtNtCskvx6Wg1ZZUs_5digby11block_layer5testss_30test_block_out_side_page_range
FNDA:1,_RNvNtNtCskvx6Wg1ZZUs_5digby11block_layer5testss_34test_block_layer_put_get_encrypted
FNDA:580734,_RNvMNtCskvx6Wg1ZZUs_5digby11block_layerNtB2_10BlockLayer10set_sanity
FNDA:528243,_RNvMNtCskvx6Wg1ZZUs_5digby11block_layerNtB2_10BlockLayer10write_page
FNDA:155790597,_RNvMNtCskvx6Wg1ZZUs_5digby11block_layerNtB2_10BlockLayer12check_sanity
FNDA:3,_RNvMNtCskvx6Wg1ZZUs_5digby11block_layerNtB2_10BlockLayer12new_with_key
FNDA:69773,_RNvMNtCskvx6Wg1ZZUs_5digby11block_layerNtB2_10BlockLayer15get_page_config
FNDA:23330,_RNvMNtCskvx6Wg1ZZUs_5digby11block_layerNtB2_10BlockLayer19generate_free_pages
FNDA:4,_RNvMNtCskvx6Wg1ZZUs_5digby11block_layerNtB2_10BlockLayer20get_total_page_count
FNDA:48,_RNvMNtCskvx6Wg1ZZUs_5digby11block_layerNtB2_10BlockLayer3new
FNDA:40,_RNvMNtCskvx6Wg1ZZUs_5digby11block_layerNtB2_10BlockLayer8sync_all
FNDA:155790597,_RNvMNtCskvx6Wg1ZZUs_5digby11block_layerNtB2_10BlockLayer9read_page
FNDA:118872,_RNvMNtCskvx6Wg1ZZUs_5digby11block_layerNtB2_10BlockLayer9sync_data
FNDA:546,_RNvMNtCsgKx49t2KK1I_5digby11block_layerNtB2_10BlockLayer10set_sanity
FNDA:336,_RNvMNtCsgKx49t2KK1I_5digby11block_layerNtB2_10BlockLayer10write_page
FNDA:791,_RNvMNtCsgKx49t2KK1I_5digby11block_layerNtB2_10BlockLayer12check_sanity
FNDA:0,_RNvMNtCsgKx49t2KK1I_5digby11block_layerNtB2_10BlockLayer12new_with_key
FNDA:213,_RNvMNtCsgKx49t2KK1I_5digby11block_layerNtB2_10BlockLayer15get_page_config
FNDA:23,_RNvMNtCsgKx49t2KK1I_5digby11block_layerNtB2_10BlockLayer19generate_free_pages
FNDA:0,_RNvMNtCsgKx49t2KK1I_5digby11block_layerNtB2_10BlockLayer20get_total_page_count
FNDA:25,_RNvMNtCsgKx49t2KK1I_5digby11block_layerNtB2_10BlockLayer3new
FNDA:25,_RNvMNtCsgKx49t2KK1I_5digby11block_layerNtB2_10BlockLayer8sync_all
FNDA:791,_RNvMNtCsgKx49t2KK1I_5digby11block_layerNtB2_10BlockLayer9read_page
FNDA:126,_RNvMNtCsgKx49t2KK1I_5digby11block_layerNtB2_10BlockLayer9sync_data
FNF:16
FNH:16
DA:55,73
DA:56,73
DA:57,73
DA:58,73
DA:59,73
DA:60,73
DA:61,73
DA:62,73
DA:63,73
DA:64,73
DA:65,73
DA:67,3
DA:68,3
DA:70,3
DA:71,1
DA:72,2
DA:73,2
DA:74,2
DA:75,2
DA:76,3
DA:77,3
DA:78,3
DA:79,3
DA:80,3
DA:81,3
DA:82,3
DA:83,3
DA:84,3
DA:85,3
DA:87,69986
DA:88,69986
DA:89,69986
DA:91,155791388
DA:92,155791388
DA:93,155791388
DA:94,155791388
DA:95,155791388
DA:96,155791388
DA:97,155791388
DA:98,155791388
DA:100,4
DA:101,4
DA:102,4
DA:104,528579
DA:105,528579
DA:106,528579
DA:107,528579
DA:108,1
DA:111,528578
DA:112,528578
DA:113,528578
DA:114,528578
DA:115,528578
DA:121,23353
DA:122,23353
DA:123,23353
DA:124,52702
DA:125,52702
DA:126,52702
DA:127,52702
DA:128,52702
DA:129,52702
DA:130,52702
DA:131,52702
DA:133,23353
DA:134,23353
DA:135,23353
DA:137,581280
DA:138,581280
DA:139,581280
DA:141,155791388
DA:142,155791388
DA:143,155791388
DA:145,118998
DA:146,118998
DA:147,118998
DA:149,65
DA:150,65
DA:151,65
DA:163,1
DA:164,1
DA:165,1
DA:166,1
DA:167,1
DA:168,1
DA:169,1
DA:170,1
DA:171,1
DA:172,1
DA:173,1
DA:174,1
DA:175,1
DA:176,1
DA:177,1
DA:180,1
DA:181,1
DA:182,1
DA:183,1
DA:185,1
DA:186,1
DA:187,1
DA:188,1
DA:189,1
DA:190,1
DA:191,1
DA:192,1
DA:193,1
DA:194,1
DA:195,1
DA:196,1
DA:200,1
DA:201,1
DA:202,1
DA:203,1
DA:204,1
DA:205,1
DA:206,1
DA:207,1
DA:209,1
DA:210,1
DA:213,1
DA:214,1
DA:215,1
DA:216,1
DA:217,1
DA:218,1
DA:219,1
DA:220,1
DA:221,1
DA:222,1
DA:223,1
DA:224,1
DA:227,1
DA:228,1
DA:229,1
DA:230,1
DA:231,1
DA:232,1
DA:233,1
DA:234,1
DA:235,1
BRF:0
BRH:0
LF:141
LH:141
end_of_record
SF:/workspaces/digby/src/block_sanity.rs
FN:37,_RNvMs0_NtCskvx6Wg1ZZUs_5digby12block_sanityNtB5_11BlockSanity14get_bytes_used
FN:55,_RNvMs0_NtCskvx6Wg1ZZUs_5digby12block_sanityNtB5_11BlockSanity16set_block_sanity
FN:44,_RNvMs0_NtCskvx6Wg1ZZUs_5digby12block_sanityNtB5_11BlockSanity18check_block_sanity
FN:18,_RNvXNtCskvx6Wg1ZZUs_5digby12block_sanityNtB2_11BlockSanityINtNtCs1X3mq3Q8b4t_4core7convert7TryFromhE8try_from
FN:28,_RNvXs_NtCskvx6Wg1ZZUs_5digby12block_sanityhINtNtCs1X3mq3Q8b4t_4core7convert4FromNtB4_11BlockSanityE4from
FN:78,_RNvNtNtCskvx6Wg1ZZUs_5digby12block_sanity5testss_26test_block_sanity_try_from
FN:72,_RNvNtNtCskvx6Wg1ZZUs_5digby12block_sanity5testss_28test_block_sanity_bytes_used
FN:37,_RNvMs0_NtCsgKx49t2KK1I_5digby12block_sanityNtB5_11BlockSanity14get_bytes_used
FN:55,_RNvMs0_NtCsgKx49t2KK1I_5digby12block_sanityNtB5_11BlockSanity16set_block_sanity
FN:44,_RNvMs0_NtCsgKx49t2KK1I_5digby12block_sanityNtB5_11BlockSanity18check_block_sanity
FN:18,_RNvXNtCsgKx49t2KK1I_5digby12block_sanityNtB2_11BlockSanityINtNtCs1X3mq3Q8b4t_4core7convert7TryFromhE8try_from
FN:28,_RNvXs_NtCsgKx49t2KK1I_5digby12block_sanityhINtNtCs1X3mq3Q8b4t_4core7convert4FromNtB4_11BlockSanityE4from
FNDA:53,_RNvMs0_NtCskvx6Wg1ZZUs_5digby12block_sanityNtB5_11BlockSanity14get_bytes_used
FNDA:580734,_RNvMs0_NtCskvx6Wg1ZZUs_5digby12block_sanityNtB5_11BlockSanity16set_block_sanity
FNDA:155790597,_RNvMs0_NtCskvx6Wg1ZZUs_5digby12block_sanityNtB5_11BlockSanity18check_block_sanity
FNDA:32,_RNvXNtCskvx6Wg1ZZUs_5digby12block_sanityNtB2_11BlockSanityINtNtCs1X3mq3Q8b4t_4core7convert7TryFromhE8try_from
FNDA:14,_RNvXs_NtCskvx6Wg1ZZUs_5digby12block_sanityhINtNtCs1X3mq3Q8b4t_4core7convert4FromNtB4_11BlockSanityE4from
FNDA:1,_RNvNtNtCskvx6Wg1ZZUs_5digby12block_sanity5testss_26test_block_sanity_try_from
FNDA:1,_RNvNtNtCskvx6Wg1ZZUs_5digby12block_sanity5testss_28test_block_sanity_bytes_used
FNDA:25,_RNvMs0_NtCsgKx49t2KK1I_5digby12block_sanityNtB5_11BlockSanity14get_bytes_used
FNDA:546,_RNvMs0_NtCsgKx49t2KK1I_5digby12block_sanityNtB5_11BlockSanity16set_block_sanity
FNDA:791,_RNvMs0_NtCsgKx49t2KK1I_5digby12block_sanityNtB5_11BlockSanity18check_block_sanity
FNDA:12,_RNvXNtCsgKx49t2KK1I_5digby12block_sanityNtB2_11BlockSanityINtNtCs1X3mq3Q8b4t_4core7convert7TryFromhE8try_from
FNDA:13,_RNvXs_NtCsgKx49t2KK1I_5digby12block_sanityhINtNtCs1X3mq3Q8b4t_4core7convert4FromNtB4_11BlockSanityE4from
FNF:7
FNH:7
DA:18,44
DA:19,44
DA:20,40
DA:21,3
DA:22,1
DA:24,44
DA:28,27
DA:29,27
DA:30,25
DA:31,2
DA:33,27
DA:37,78
DA:38,78
DA:39,74
DA:40,4
DA:42,78
DA:44,155791388
DA:45,155791388
DA:46,155791376
DA:47,155791376
DA:48,155791376
DA:49,12
DA:50,12
DA:51,12
DA:53,155791388
DA:55,581280
DA:56,581280
DA:57,581250
DA:58,581250
DA:59,581250
DA:60,30
DA:61,30
DA:62,30
DA:64,581280
DA:72,1
DA:73,1
DA:74,1
DA:75,1
DA:78,1
DA:79,1
DA:80,1
DA:83,1
DA:84,1
DA:85,1
BRF:0
BRH:0
LF:44
LH:44
end_of_record
SF:/workspaces/digby/src/clear_handler.rs
FN:17,_RNvMNtCskvx6Wg1ZZUs_5digby13clear_handlerNtB2_12ClearHandler10clear_tree
FN:87,_RNvMNtCskvx6Wg1ZZUs_5digby13clear_handlerNtB2_12ClearHandler15clear_leaf_page
FN:77,_RNvMNtCskvx6Wg1ZZUs_5digby13clear_handlerNtB2_12ClearHandler20clear_root_leaf_page
FN:38,_RNvMNtCskvx6Wg1ZZUs_5digby13clear_handlerNtB2_12ClearHandler20clear_tree_dir_pages
FN:65,_RNvMNtCskvx6Wg1ZZUs_5digby13clear_handlerNtB2_12ClearHandler20create_new_root_page
FN:17,_RNvMNtCsgKx49t2KK1I_5digby13clear_handlerNtB2_12ClearHandler10clear_tree
FN:87,_RNvMNtCsgKx49t2KK1I_5digby13clear_handlerNtB2_12ClearHandler15clear_leaf_page
FN:77,_RNvMNtCsgKx49t2KK1I_5digby13clear_handlerNtB2_12ClearHandler20clear_root_leaf_page
FN:38,_RNvMNtCsgKx49t2KK1I_5digby13clear_handlerNtB2_12ClearHandler20clear_tree_dir_pages
FN:65,_RNvMNtCsgKx49t2KK1I_5digby13clear_handlerNtB2_12ClearHandler20create_new_root_page
FNDA:1,_RNvMNtCskvx6Wg1ZZUs_5digby13clear_handlerNtB2_12ClearHandler10clear_tree
FNDA:132,_RNvMNtCskvx6Wg1ZZUs_5digby13clear_handlerNtB2_12ClearHandler15clear_leaf_page
FNDA:0,_RNvMNtCskvx6Wg1ZZUs_5digby13clear_handlerNtB2_12ClearHandler20clear_root_leaf_page
FNDA:39,_RNvMNtCskvx6Wg1ZZUs_5digby13clear_handlerNtB2_12ClearHandler20clear_tree_dir_pages
FNDA:1,_RNvMNtCskvx6Wg1ZZUs_5digby13clear_handlerNtB2_12ClearHandler20create_new_root_page
FNDA:3,_RNvMNtCsgKx49t2KK1I_5digby13clear_handlerNtB2_12ClearHandler10clear_tree
FNDA:6,_RNvMNtCsgKx49t2KK1I_5digby13clear_handlerNtB2_12ClearHandler15clear_leaf_page
FNDA:2,_RNvMNtCsgKx49t2KK1I_5digby13clear_handlerNtB2_12ClearHandler20clear_root_leaf_page
FNDA:1,_RNvMNtCsgKx49t2KK1I_5digby13clear_handlerNtB2_12ClearHandler20clear_tree_dir_pages
FNDA:3,_RNvMNtCsgKx49t2KK1I_5digby13clear_handlerNtB2_12ClearHandler20create_new_root_page
FNF:5
FNH:5
DA:17,4
DA:18,4
DA:19,4
DA:20,4
DA:21,4
DA:22,4
DA:23,4
DA:24,2
DA:25,2
DA:26,2
DA:27,2
DA:28,2
DA:29,2
DA:31,2
DA:33,2
DA:34,2
DA:35,2
DA:36,4
DA:38,40
DA:39,40
DA:40,40
DA:41,40
DA:42,40
DA:43,40
DA:45,40
DA:46,214
DA:47,174
DA:48,174
DA:49,136
DA:50,136
DA:51,136
DA:52,136
DA:54,136
DA:55,38
DA:57,38
DA:58,38
DA:59,38
DA:60,38
DA:63,40
DA:65,4
DA:66,4
DA:67,4
DA:68,4
DA:69,4
DA:70,4
DA:71,4
DA:72,4
DA:73,4
DA:74,4
DA:75,4
DA:77,2
DA:78,2
DA:79,2
DA:80,2
DA:81,2
DA:82,2
DA:83,2
DA:84,2
DA:85,2
DA:87,138
DA:88,138
DA:89,138
DA:90,138
DA:91,138
DA:92,138
DA:93,429
DA:94,291
DA:95,33
DA:96,33
DA:97,33
DA:98,33
DA:99,33
DA:100,258
DA:102,138
DA:103,138
BRF:0
BRH:0
LF:75
LH:75
end_of_record
SF:/workspaces/digby/src/compressor.rs
FN:48,_RNvMs0_NtCskvx6Wg1ZZUs_5digby10compressorNtB5_10Compressor10decompress
FN:37,_RNvMs0_NtCskvx6Wg1ZZUs_5digby10compressorNtB5_10Compressor3new
FN:41,_RNvMs0_NtCskvx6Wg1ZZUs_5digby10compressorNtB5_10Compressor8compress
FN:18,_RNvXNtCskvx6Wg1ZZUs_5digby10compressorNtB2_14CompressorTypeINtNtCs1X3mq3Q8b4t_4core7convert7TryFromhE8try_from
FN:28,_RNvXs_NtCskvx6Wg1ZZUs_5digby10compressorhINtNtCs1X3mq3Q8b4t_4core7convert4FromNtB4_14CompressorTypeE4from
FN:86,_RNvNtNtCskvx6Wg1ZZUs_5digby10compressor5testss_19test_compressor_lz4
FN:74,_RNvNtNtCskvx6Wg1ZZUs_5digby10compressor5testss_20test_compressor_none
FN:68,_RNvNtNtCskvx6Wg1ZZUs_5digby10compressor5testss_25test_compressor_type_from
FN:61,_RNvNtNtCskvx6Wg1ZZUs_5digby10compressor5testss_29test_compressor_type_try_from
FN:48,_RNvMs0_NtCsgKx49t2KK1I_5digby10compressorNtB5_10Compressor10decompress
FN:37,_RNvMs0_NtCsgKx49t2KK1I_5digby10compressorNtB5_10Compressor3new
FN:41,_RNvMs0_NtCsgKx49t2KK1I_5digby10compressorNtB5_10Compressor8compress
FN:18,_RNvXNtCsgKx49t2KK1I_5digby10compressorNtB2_14CompressorTypeINtNtCs1X3mq3Q8b4t_4core7convert7TryFromhE8try_from
FN:28,_RNvXs_NtCsgKx49t2KK1I_5digby10compressorhINtNtCs1X3mq3Q8b4t_4core7convert4FromNtB4_14CompressorTypeE4from
FNDA:2,_RNvMs0_NtCskvx6Wg1ZZUs_5digby10compressorNtB5_10Compressor10decompress
FNDA:43,_RNvMs0_NtCskvx6Wg1ZZUs_5digby10compressorNtB5_10Compressor3new
FNDA:5,_RNvMs0_NtCskvx6Wg1ZZUs_5digby10compressorNtB5_10Compressor8compress
FNDA:30,_RNvXNtCskvx6Wg1ZZUs_5digby10compressorNtB2_14CompressorTypeINtNtCs1X3mq3Q8b4t_4core7convert7TryFromhE8try_from
FNDA:14,_RNvXs_NtCskvx6Wg1ZZUs_5digby10compressorhINtNtCs1X3mq3Q8b4t_4core7convert4FromNtB4_14CompressorTypeE4from
FNDA:1,_RNvNtNtCskvx6Wg1ZZUs_5digby10compressor5testss_19test_compressor_lz4
FNDA:1,_RNvNtNtCskvx6Wg1ZZUs_5digby10compressor5testss_20test_compressor_none
FNDA:1,_RNvNtNtCskvx6Wg1ZZUs_5digby10compressor5testss_25test_compressor_type_from
FNDA:1,_RNvNtNtCskvx6Wg1ZZUs_5digby10compressor5testss_29test_compressor_type_try_from
FNDA:4,_RNvMs0_NtCsgKx49t2KK1I_5digby10compressorNtB5_10Compressor10decompress
FNDA:25,_RNvMs0_NtCsgKx49t2KK1I_5digby10compressorNtB5_10Compressor3new
FNDA:4,_RNvMs0_NtCsgKx49t2KK1I_5digby10compressorNtB5_10Compressor8compress
FNDA:12,_RNvXNtCsgKx49t2KK1I_5digby10compressorNtB2_14CompressorTypeINtNtCs1X3mq3Q8b4t_4core7convert7TryFromhE8try_from
FNDA:13,_RNvXs_NtCsgKx49t2KK1I_5digby10compressorhINtNtCs1X3mq3Q8b4t_4core7convert4FromNtB4_14CompressorTypeE4from
FNF:9
FNH:9
DA:18,42
DA:19,42
DA:20,36
DA:21,5
DA:22,1
DA:24,42
DA:28,27
DA:29,27
DA:30,24
DA:31,3
DA:33,27
DA:37,68
DA:38,68
DA:39,68
DA:41,9
DA:42,9
DA:43,1
DA:44,8
DA:46,9
DA:48,6
DA:49,6
DA:50,1
DA:51,5
DA:53,6
DA:61,1
DA:62,1
DA:63,1
DA:64,1
DA:65,1
DA:68,1
DA:69,1
DA:70,1
DA:71,1
DA:74,1
DA:75,1
DA:76,1
DA:78,1
DA:79,1
DA:81,1
DA:82,1
DA:83,1
DA:86,1
DA:87,1
DA:89,1
DA:91,1
DA:93,1
DA:95,1
DA:96,1
DA:97,1
BRF:0
BRH:0
LF:49
LH:49
end_of_record
SF:/workspaces/digby/src/db.rs
FN:158,_RNvMNtCskvx6Wg1ZZUs_5digby2dbNtB2_2Db13get_from_tree
FN:28,_RNvMNtCskvx6Wg1ZZUs_5digby2dbNtB2_2Db18new_with_page_size
FN:152,_RNvMNtCskvx6Wg1ZZUs_5digby2dbNtB2_2Db3get
FN:24,_RNvMNtCskvx6Wg1ZZUs_5digby2dbNtB2_2Db3new
FN:186,_RNvMNtCskvx6Wg1ZZUs_5digby2dbNtB2_2Db3put
FN:253,_RNvMNtCskvx6Wg1ZZUs_5digby2dbNtB2_2Db5clear
FN:88,_RNvMNtCskvx6Wg1ZZUs_5digby2dbNtB2_2Db6delete
FN:819,_RNvMs0_NtCskvx6Wg1ZZUs_5digby2dbNtB5_2Db15get_master_page
FN:754,_RNvMs_NtCskvx6Wg1ZZUs_5digby2dbNtB4_2Db12init_db_file
FN:721,_RNvMs_NtCskvx6Wg1ZZUs_5digby2dbNtB4_2Db18check_db_integrity
FN:1296,_RNvNtNtCskvx6Wg1ZZUs_5digby2db5testss_10test_match
FN:1247,_RNvNtNtCskvx6Wg1ZZUs_5digby2db5testss_13test_db_clear
FN:861,_RNvNtNtCskvx6Wg1ZZUs_5digby2db5testss_16test_db_creation
FN:887,_RNvNtNtCskvx6Wg1ZZUs_5digby2db5testss_19test_db_store_value
FN:918,_RNvNtNtCskvx6Wg1ZZUs_5digby2db5testss_23test_db_store_two_value
FN:950,_RNvNtNtCskvx6Wg1ZZUs_5digby2db5testss_26test_db_store_value_delete
FN:1455,_RNvNtNtCskvx6Wg1ZZUs_5digby2db5testss_35test_db_store_value_with_encryption
FN:1311,_RNvNtNtCskvx6Wg1ZZUs_5digby2db5testss_37test_db_store_value_delete_small_page
FN:1117,_RNvNtNtCskvx6Wg1ZZUs_5digby2db5testss_44test_db_store_value_delete_small_page_random
FN:995,_RNvNtNtCskvx6Wg1ZZUs_5digby2db5testss_45test_db_store_value_delete_small_page_reverse
FN:1182,_RNvNtNtCskvx6Wg1ZZUs_5digby2db5testss_47test_db_store_value_delete_small_page_random_le
FN:1056,_RNvNtNtCskvx6Wg1ZZUs_5digby2db5testss_48test_db_store_value_delete_small_page_reverse_le
FN:1382,_RNvNtNtCskvx6Wg1ZZUs_5digby2db5testss_51test_db_store_value_delete_small_page_little_endian
FN:508,_RNvMNtCskvx6Wg1ZZUs_5digby2dbNtB2_2Db11clear_table
FN:309,_RNvMNtCskvx6Wg1ZZUs_5digby2dbNtB2_2Db12create_table
FN:512,_RNvMNtCskvx6Wg1ZZUs_5digby2dbNtB2_2Db12delete_table
FN:612,_RNvMNtCskvx6Wg1ZZUs_5digby2dbNtB2_2Db15get_table_entry
FN:412,_RNvMNtCskvx6Wg1ZZUs_5digby2dbNtB2_2Db15put_table_entry
FN:625,_RNvMNtCskvx6Wg1ZZUs_5digby2dbNtB2_2Db18delete_table_entry
FN:392,_RNvMNtCskvx6Wg1ZZUs_5digby2dbNtB2_2Db19get_table_tree_root
FN:516,_RNvMNtCskvx6Wg1ZZUs_5digby2dbNtB2_2Db23clear_table_with_delete
FN:848,_RNvXs1_NtCskvx6Wg1ZZUs_5digby2dbNtB5_2DbNtNtNtCs1X3mq3Q8b4t_4core3ops4drop4Drop4drop
FN:838,_RINvMs0_NtCskvx6Wg1ZZUs_5digby2dbNtB6_2Db13get_tuple_keyNtNtB8_14overflow_tuple13OverflowTupleEB8_
FN:830,_RINvMs0_NtCskvx6Wg1ZZUs_5digby2dbNtB6_2Db15get_tuple_valueNtNtB8_14overflow_tuple13OverflowTupleEB8_
FN:830,_RINvMs0_NtCskvx6Wg1ZZUs_5digby2dbNtB6_2Db15get_tuple_valueNtNtB8_5tuple5TupleEB8_
FN:764,_RNCNvMs_NtCskvx6Wg1ZZUs_5digby2dbNtB6_2Db12init_db_file0B8_
FN:777,_RNCNvMs_NtCskvx6Wg1ZZUs_5digby2dbNtB6_2Db12init_db_files0_0B8_
FN:787,_RNCNvMs_NtCskvx6Wg1ZZUs_5digby2dbNtB6_2Db12init_db_files1_0B8_
FN:796,_RNCNvMs_NtCskvx6Wg1ZZUs_5digby2dbNtB6_2Db12init_db_files2_0B8_
FN:797,_RNCNvMs_NtCskvx6Wg1ZZUs_5digby2dbNtB6_2Db12init_db_files3_0B8_
FN:770,_RNCNvMs_NtCskvx6Wg1ZZUs_5digby2dbNtB6_2Db12init_db_files_0B8_
FN:848,_RNvXs1_NtCsgKx49t2KK1I_5digby2dbNtB5_2DbNtNtNtCs1X3mq3Q8b4t_4core3ops4drop4Drop4drop
FN:838,_RINvMs0_NtCsgKx49t2KK1I_5digby2dbNtB6_2Db13get_tuple_keyNtNtB8_14overflow_tuple13OverflowTupleEB8_
FN:830,_RINvMs0_NtCsgKx49t2KK1I_5digby2dbNtB6_2Db15get_tuple_valueNtNtB8_14overflow_tuple13OverflowTupleEB8_
FN:830,_RINvMs0_NtCsgKx49t2KK1I_5digby2dbNtB6_2Db15get_tuple_valueNtNtB8_5tuple5TupleEB8_
FN:764,_RNCNvMs_NtCsgKx49t2KK1I_5digby2dbNtB6_2Db12init_db_file0B8_
FN:777,_RNCNvMs_NtCsgKx49t2KK1I_5digby2dbNtB6_2Db12init_db_files0_0B8_
FN:787,_RNCNvMs_NtCsgKx49t2KK1I_5digby2dbNtB6_2Db12init_db_files1_0B8_
FN:796,_RNCNvMs_NtCsgKx49t2KK1I_5digby2dbNtB6_2Db12init_db_files2_0B8_
FN:797,_RNCNvMs_NtCsgKx49t2KK1I_5digby2dbNtB6_2Db12init_db_files3_0B8_
FN:770,_RNCNvMs_NtCsgKx49t2KK1I_5digby2dbNtB6_2Db12init_db_files_0B8_
FN:508,_RNvMNtCsgKx49t2KK1I_5digby2dbNtB2_2Db11clear_table
FN:309,_RNvMNtCsgKx49t2KK1I_5digby2dbNtB2_2Db12create_table
FN:512,_RNvMNtCsgKx49t2KK1I_5digby2dbNtB2_2Db12delete_table
FN:158,_RNvMNtCsgKx49t2KK1I_5digby2dbNtB2_2Db13get_from_tree
FN:612,_RNvMNtCsgKx49t2KK1I_5digby2dbNtB2_2Db15get_table_entry
FN:412,_RNvMNtCsgKx49t2KK1I_5digby2dbNtB2_2Db15put_table_entry
FN:625,_RNvMNtCsgKx49t2KK1I_5digby2dbNtB2_2Db18delete_table_entry
FN:28,_RNvMNtCsgKx49t2KK1I_5digby2dbNtB2_2Db18new_with_page_size
FN:392,_RNvMNtCsgKx49t2KK1I_5digby2dbNtB2_2Db19get_table_tree_root
FN:516,_RNvMNtCsgKx49t2KK1I_5digby2dbNtB2_2Db23clear_table_with_delete
FN:152,_RNvMNtCsgKx49t2KK1I_5digby2dbNtB2_2Db3get
FN:24,_RNvMNtCsgKx49t2KK1I_5digby2dbNtB2_2Db3new
FN:186,_RNvMNtCsgKx49t2KK1I_5digby2dbNtB2_2Db3put
FN:253,_RNvMNtCsgKx49t2KK1I_5digby2dbNtB2_2Db5clear
FN:88,_RNvMNtCsgKx49t2KK1I_5digby2dbNtB2_2Db6delete
FN:819,_RNvMs0_NtCsgKx49t2KK1I_5digby2dbNtB5_2Db15get_master_page
FN:754,_RNvMs_NtCsgKx49t2KK1I_5digby2dbNtB4_2Db12init_db_file
FN:721,_RNvMs_NtCsgKx49t2KK1I_5digby2dbNtB4_2Db18check_db_integrity
FNDA:16847130,_RNvMNtCskvx6Wg1ZZUs_5digby2dbNtB2_2Db13get_from_tree
FNDA:39,_RNvMNtCskvx6Wg1ZZUs_5digby2dbNtB2_2Db18new_with_page_size
FNDA:16847130,_RNvMNtCskvx6Wg1ZZUs_5digby2dbNtB2_2Db3get
FNDA:12,_RNvMNtCskvx6Wg1ZZUs_5digby2dbNtB2_2Db3new
FNDA:24842,_RNvMNtCskvx6Wg1ZZUs_5digby2dbNtB2_2Db3put
FNDA:1,_RNvMNtCskvx6Wg1ZZUs_5digby2dbNtB2_2Db5clear
FNDA:24582,_RNvMNtCskvx6Wg1ZZUs_5digby2dbNtB2_2Db6delete
FNDA:16896555,_RNvMs0_NtCskvx6Wg1ZZUs_5digby2dbNtB5_2Db15get_master_page
FNDA:12,_RNvMs_NtCskvx6Wg1ZZUs_5digby2dbNtB4_2Db12init_db_file
FNDA:27,_RNvMs_NtCskvx6Wg1ZZUs_5digby2dbNtB4_2Db18check_db_integrity
FNDA:1,_RNvNtNtCskvx6Wg1ZZUs_5digby2db5testss_10test_match
FNDA:1,_RNvNtNtCskvx6Wg1ZZUs_5digby2db5testss_13test_db_clear
FNDA:1,_RNvNtNtCskvx6Wg1ZZUs_5digby2db5testss_16test_db_creation
FNDA:1,_RNvNtNtCskvx6Wg1ZZUs_5digby2db5testss_19test_db_store_value
FNDA:1,_RNvNtNtCskvx6Wg1ZZUs_5digby2db5testss_23test_db_store_two_value
FNDA:1,_RNvNtNtCskvx6Wg1ZZUs_5digby2db5testss_26test_db_store_value_delete
FNDA:1,_RNvNtNtCskvx6Wg1ZZUs_5digby2db5testss_35test_db_store_value_with_encryption
FNDA:1,_RNvNtNtCskvx6Wg1ZZUs_5digby2db5testss_37test_db_store_value_delete_small_page
FNDA:1,_RNvNtNtCskvx6Wg1ZZUs_5digby2db5testss_44test_db_store_value_delete_small_page_random
FNDA:1,_RNvNtNtCskvx6Wg1ZZUs_5digby2db5testss_45test_db_store_value_delete_small_page_reverse
FNDA:1,_RNvNtNtCskvx6Wg1ZZUs_5digby2db5testss_47test_db_store_value_delete_small_page_random_le
FNDA:1,_RNvNtNtCskvx6Wg1ZZUs_5digby2db5testss_48test_db_store_value_delete_small_page_reverse_le
FNDA:1,_RNvNtNtCskvx6Wg1ZZUs_5digby2db5testss_51test_db_store_value_delete_small_page_little_endian
FNDA:0,_RNvMNtCskvx6Wg1ZZUs_5digby2dbNtB2_2Db11clear_table
FNDA:0,_RNvMNtCskvx6Wg1ZZUs_5digby2dbNtB2_2Db12create_table
FNDA:0,_RNvMNtCskvx6Wg1ZZUs_5digby2dbNtB2_2Db12delete_table
FNDA:0,_RNvMNtCskvx6Wg1ZZUs_5digby2dbNtB2_2Db15get_table_entry
FNDA:0,_RNvMNtCskvx6Wg1ZZUs_5digby2dbNtB2_2Db15put_table_entry
FNDA:0,_RNvMNtCskvx6Wg1ZZUs_5digby2dbNtB2_2Db18delete_table_entry
FNDA:0,_RNvMNtCskvx6Wg1ZZUs_5digby2dbNtB2_2Db19get_table_tree_root
FNDA:0,_RNvMNtCskvx6Wg1ZZUs_5digby2dbNtB2_2Db23clear_table_with_delete
FNDA:39,_RNvXs1_NtCskvx6Wg1ZZUs_5digby2dbNtB5_2DbNtNtNtCs1X3mq3Q8b4t_4core3ops4drop4Drop4drop
FNDA:0,_RINvMs0_NtCskvx6Wg1ZZUs_5digby2dbNtB6_2Db13get_tuple_keyNtNtB8_14overflow_tuple13OverflowTupleEB8_
FNDA:0,_RINvMs0_NtCskvx6Wg1ZZUs_5digby2dbNtB6_2Db15get_tuple_valueNtNtB8_14overflow_tuple13OverflowTupleEB8_
FNDA:16822285,_RINvMs0_NtCskvx6Wg1ZZUs_5digby2dbNtB6_2Db15get_tuple_valueNtNtB8_5tuple5TupleEB8_
FNDA:120,_RNCNvMs_NtCskvx6Wg1ZZUs_5digby2dbNtB6_2Db12init_db_file0B8_
FNDA:96,_RNCNvMs_NtCskvx6Wg1ZZUs_5digby2dbNtB6_2Db12init_db_files0_0B8_
FNDA:84,_RNCNvMs_NtCskvx6Wg1ZZUs_5digby2dbNtB6_2Db12init_db_files1_0B8_
FNDA:72,_RNCNvMs_NtCskvx6Wg1ZZUs_5digby2dbNtB6_2Db12init_db_files2_0B8_
FNDA:60,_RNCNvMs_NtCskvx6Wg1ZZUs_5digby2dbNtB6_2Db12init_db_files3_0B8_
FNDA:108,_RNCNvMs_NtCskvx6Wg1ZZUs_5digby2dbNtB6_2Db12init_db_files_0B8_
FNDA:25,_RNvXs1_NtCsgKx49t2KK1I_5digby2dbNtB5_2DbNtNtNtCs1X3mq3Q8b4t_4core3ops4drop4Drop4drop
FNDA:35,_RINvMs0_NtCsgKx49t2KK1I_5digby2dbNtB6_2Db13get_tuple_keyNtNtB8_14overflow_tuple13OverflowTupleEB8_
FNDA:35,_RINvMs0_NtCsgKx49t2KK1I_5digby2dbNtB6_2Db15get_tuple_valueNtNtB8_14overflow_tuple13OverflowTupleEB8_
FNDA:5,_RINvMs0_NtCsgKx49t2KK1I_5digby2dbNtB6_2Db15get_tuple_valueNtNtB8_5tuple5TupleEB8_
FNDA:130,_RNCNvMs_NtCsgKx49t2KK1I_5digby2dbNtB6_2Db12init_db_file0B8_
FNDA:104,_RNCNvMs_NtCsgKx49t2KK1I_5digby2dbNtB6_2Db12init_db_files0_0B8_
FNDA:91,_RNCNvMs_NtCsgKx49t2KK1I_5digby2dbNtB6_2Db12init_db_files1_0B8_
FNDA:78,_RNCNvMs_NtCsgKx49t2KK1I_5digby2dbNtB6_2Db12init_db_files2_0B8_
FNDA:65,_RNCNvMs_NtCsgKx49t2KK1I_5digby2dbNtB6_2Db12init_db_files3_0B8_
FNDA:117,_RNCNvMs_NtCsgKx49t2KK1I_5digby2dbNtB6_2Db12init_db_files_0B8_
FNDA:1,_RNvMNtCsgKx49t2KK1I_5digby2dbNtB2_2Db11clear_table
FNDA:6,_RNvMNtCsgKx49t2KK1I_5digby2dbNtB2_2Db12create_table
FNDA:1,_RNvMNtCsgKx49t2KK1I_5digby2dbNtB2_2Db12delete_table
FNDA:78,_RNvMNtCsgKx49t2KK1I_5digby2dbNtB2_2Db13get_from_tree
FNDA:7,_RNvMNtCsgKx49t2KK1I_5digby2dbNtB2_2Db15get_table_entry
FNDA:5,_RNvMNtCsgKx49t2KK1I_5digby2dbNtB2_2Db15put_table_entry
FNDA:4,_RNvMNtCsgKx49t2KK1I_5digby2dbNtB2_2Db18delete_table_entry
FNDA:25,_RNvMNtCsgKx49t2KK1I_5digby2dbNtB2_2Db18new_with_page_size
FNDA:36,_RNvMNtCsgKx49t2KK1I_5digby2dbNtB2_2Db19get_table_tree_root
FNDA:2,_RNvMNtCsgKx49t2KK1I_5digby2dbNtB2_2Db23clear_table_with_delete
FNDA:71,_RNvMNtCsgKx49t2KK1I_5digby2dbNtB2_2Db3get
FNDA:22,_RNvMNtCsgKx49t2KK1I_5digby2dbNtB2_2Db3new
FNDA:35,_RNvMNtCsgKx49t2KK1I_5digby2dbNtB2_2Db3put
FNDA:1,_RNvMNtCsgKx49t2KK1I_5digby2dbNtB2_2Db5clear
FNDA:2,_RNvMNtCsgKx49t2KK1I_5digby2dbNtB2_2Db6delete
FNDA:158,_RNvMs0_NtCsgKx49t2KK1I_5digby2dbNtB5_2Db15get_master_page
FNDA:13,_RNvMs_NtCsgKx49t2KK1I_5digby2dbNtB4_2Db12init_db_file
FNDA:12,_RNvMs_NtCsgKx49t2KK1I_5digby2dbNtB4_2Db18check_db_integrity
FNF:40
FNH:40
DA:24,34
DA:25,34
DA:26,34
DA:28,64
DA:29,64
DA:30,64
DA:31,64
DA:32,64
DA:33,64
DA:37,64
DA:40,64
DA:41,62
DA:42,62
DA:43,62
DA:44,62
DA:45,62
DA:46,62
DA:47,23
DA:48,39
DA:49,2
DA:50,2
DA:51,2
DA:52,2
DA:53,2
DA:54,2
DA:55,2
DA:56,2
DA:57,2
DA:58,2
DA:59,2
DA:61,64
DA:64,64
DA:65,2
DA:66,2
DA:67,62
DA:68,62
DA:69,62
DA:70,62
DA:71,64
DA:73,64
DA:74,64
DA:75,64
DA:76,64
DA:78,64
DA:79,25
DA:80,25
DA:81,39
DA:82,39
DA:83,39
DA:84,39
DA:85,64
DA:86,64
DA:88,24584
DA:89,24584
DA:90,2
DA:92,24582
DA:96,24584
DA:99,24584
DA:100,24584
DA:103,24584
DA:104,24584
DA:105,24584
DA:106,24584
DA:107,24584
DA:110,24584
DA:111,24584
DA:112,24584
DA:113,24584
DA:114,24584
DA:115,24584
DA:116,24584
DA:117,24584
DA:118,24584
DA:119,24584
DA:120,1
DA:121,24583
DA:124,24583
DA:125,24583
DA:126,24583
DA:127,59475
DA:128,34892
DA:129,34892
DA:134,24583
DA:135,24583
DA:137,24583
DA:140,24583
DA:143,24583
DA:145,24583
DA:147,24583
DA:149,24583
DA:150,24584
DA:152,16847201
DA:153,16847201
DA:154,16847201
DA:155,16847201
DA:156,16847201
DA:158,16847208
DA:160,16847208
DA:162,16847208
DA:163,16847137
DA:164,16822290
DA:166,24847
DA:168,71
DA:171,71
DA:174,71
DA:176,71
DA:177,35
DA:178,35
DA:179,35
DA:180,35
DA:182,35
DA:183,35
DA:184,16847208
DA:186,24877
DA:188,24877
DA:191,24877
DA:192,24877
DA:196,24877
DA:197,24877
DA:198,24877
DA:199,24877
DA:200,24877
DA:204,24877
DA:205,24877
DA:206,24877
DA:207,24877
DA:208,24877
DA:209,24877
DA:210,24877
DA:215,24877
DA:216,24877
DA:217,24877
DA:218,24877
DA:219,24877
DA:220,24877
DA:221,24877
DA:222,24877
DA:227,24877
DA:228,24877
DA:229,24877
DA:230,58578
DA:231,33701
DA:232,33701
DA:237,24877
DA:238,24877
DA:240,24877
DA:243,24877
DA:246,24877
DA:248,24877
DA:250,24877
DA:251,24877
DA:253,2
DA:255,2
DA:258,2
DA:259,2
DA:263,2
DA:264,2
DA:265,2
DA:266,2
DA:267,2
DA:272,2
DA:273,2
DA:274,2
DA:275,2
DA:276,2
DA:277,2
DA:278,2
DA:283,2
DA:284,2
DA:285,2
DA:286,18
DA:287,16
DA:288,16
DA:293,2
DA:294,2
DA:296,2
DA:299,2
DA:302,2
DA:304,2
DA:306,2
DA:307,2
DA:309,6
DA:311,6
DA:312,6
DA:313,1
DA:317,5
DA:322,5
DA:323,5
DA:327,5
DA:328,5
DA:329,5
DA:330,5
DA:331,5
DA:334,5
DA:335,5
DA:336,5
DA:337,5
DA:338,5
DA:340,5
DA:343,5
DA:344,5
DA:345,5
DA:346,5
DA:347,5
DA:348,5
DA:349,5
DA:354,5
DA:355,5
DA:356,5
DA:357,5
DA:358,5
DA:359,5
DA:360,5
DA:361,5
DA:366,5
DA:367,5
DA:368,5
DA:369,10
DA:370,5
DA:371,5
DA:376,5
DA:377,5
DA:379,5
DA:382,5
DA:385,5
DA:387,5
DA:389,5
DA:390,5
DA:392,36
DA:393,36
DA:394,36
DA:395,1
DA:397,35
DA:398,35
DA:400,35
DA:402,35
DA:403,26
DA:404,26
DA:405,26
DA:406,26
DA:408,9
DA:410,35
DA:412,5
DA:413,5
DA:414,5
DA:415,1
DA:419,4
DA:420,4
DA:421,1
DA:422,1
DA:423,3
DA:424,4
DA:427,4
DA:430,4
DA:431,4
DA:435,4
DA:436,4
DA:437,4
DA:438,4
DA:439,4
DA:443,4
DA:444,4
DA:445,4
DA:446,4
DA:447,4
DA:448,4
DA:449,4
DA:452,4
DA:453,4
DA:454,4
DA:455,4
DA:456,4
DA:457,4
DA:458,4
DA:461,4
DA:462,4
DA:463,4
DA:464,4
DA:465,4
DA:466,4
DA:467,4
DA:470,4
DA:471,4
DA:472,4
DA:473,4
DA:474,4
DA:475,4
DA:476,4
DA:477,4
DA:482,4
DA:483,4
DA:484,4
DA:485,8
DA:486,4
DA:487,4
DA:492,4
DA:493,4
DA:495,4
DA:498,4
DA:501,4
DA:503,4
DA:505,4
DA:506,4
DA:508,1
DA:509,1
DA:510,1
DA:512,1
DA:513,1
DA:514,1
DA:516,2
DA:517,2
DA:518,2
DA:519,0
DA:522,2
DA:523,2
DA:524,0
DA:525,0
DA:526,2
DA:527,2
DA:530,2
DA:533,2
DA:534,2
DA:538,2
DA:539,2
DA:540,2
DA:541,2
DA:542,2
DA:545,2
DA:546,2
DA:547,2
DA:548,2
DA:549,2
DA:550,2
DA:553,2
DA:554,2
DA:556,2
DA:557,1
DA:558,1
DA:559,1
DA:560,1
DA:561,1
DA:562,1
DA:563,1
DA:564,1
DA:565,1
DA:567,1
DA:568,1
DA:569,1
DA:570,1
DA:571,1
DA:572,1
DA:573,1
DA:575,1
DA:576,1
DA:577,1
DA:578,1
DA:579,1
DA:580,1
DA:586,2
DA:587,2
DA:588,2
DA:589,4
DA:590,2
DA:591,2
DA:596,2
DA:597,2
DA:599,2
DA:602,2
DA:605,2
DA:607,2
DA:609,2
DA:610,2
DA:612,7
DA:613,7
DA:614,7
DA:615,0
DA:618,7
DA:619,7
DA:621,7
DA:622,7
DA:623,7
DA:625,4
DA:626,4
DA:627,4
DA:628,0
DA:631,4
DA:632,4
DA:634,1
DA:635,3
DA:636,3
DA:638,3
DA:639,1
DA:641,2
DA:645,3
DA:648,3
DA:649,3
DA:652,3
DA:653,3
DA:654,3
DA:655,3
DA:656,3
DA:659,3
DA:660,3
DA:661,3
DA:662,3
DA:663,3
DA:664,3
DA:665,3
DA:666,3
DA:667,3
DA:668,2
DA:669,1
DA:671,1
DA:672,1
DA:673,1
DA:674,1
DA:675,1
DA:676,1
DA:677,1
DA:680,1
DA:681,1
DA:682,1
DA:683,1
DA:684,1
DA:685,1
DA:686,1
DA:687,1
DA:691,1
DA:692,1
DA:693,1
DA:694,2
DA:695,1
DA:696,1
DA:701,1
DA:702,1
DA:704,1
DA:707,1
DA:710,1
DA:712,1
DA:714,1
DA:716,1
DA:717,4
DA:721,39
DA:722,39
DA:723,39
DA:724,0
DA:725,0
DA:726,0
DA:729,39
DA:730,39
DA:731,39
DA:732,39
DA:733,0
DA:734,0
DA:735,0
DA:738,39
DA:739,39
DA:740,39
DA:741,39
DA:742,17
DA:744,22
DA:746,39
DA:747,39
DA:748,39
DA:749,39
DA:751,39
DA:752,39
DA:754,25
DA:757,25
DA:758,25
DA:761,25
DA:762,25
DA:764,250
DA:765,25
DA:768,25
DA:770,225
DA:771,25
DA:774,25
DA:775,25
DA:777,200
DA:778,25
DA:779,25
DA:780,25
DA:781,25
DA:784,25
DA:785,25
DA:787,175
DA:788,25
DA:789,25
DA:790,25
DA:791,25
DA:794,25
DA:796,150
DA:797,125
DA:798,25
DA:799,25
DA:802,25
DA:805,25
DA:806,25
DA:807,25
DA:808,25
DA:809,25
DA:811,25
DA:813,25
DA:814,25
DA:815,25
DA:819,16896713
DA:820,16896713
DA:821,16896713
DA:823,16896713
DA:824,8450262
DA:826,8446451
DA:828,16896713
DA:830,16822325
DA:831,16822325
DA:832,16822325
DA:833,2
DA:834,16822323
DA:835,16822323
DA:836,16822325
DA:838,35
DA:839,35
DA:840,35
DA:841,2
DA:842,33
DA:843,33
DA:844,35
DA:848,64
DA:849,64
DA:850,64
DA:861,1
DA:862,1
DA:863,1
DA:864,1
DA:865,1
DA:866,1
DA:867,1
DA:868,1
DA:869,1
DA:871,1
DA:872,1
DA:873,1
DA:874,1
DA:876,1
DA:877,1
DA:878,1
DA:879,1
DA:880,1
DA:881,1
DA:883,1
DA:884,1
DA:887,1
DA:888,1
DA:889,1
DA:890,1
DA:892,1
DA:893,1
DA:894,1
DA:895,1
DA:897,1
DA:898,1
DA:903,1
DA:904,1
DA:905,1
DA:906,1
DA:908,1
DA:909,1
DA:911,1
DA:912,1
DA:918,1
DA:919,1
DA:920,1
DA:921,1
DA:922,1
DA:923,1
DA:924,1
DA:925,1
DA:926,1
DA:927,1
DA:928,1
DA:929,1
DA:930,1
DA:931,1
DA:932,1
DA:936,1
DA:937,1
DA:938,1
DA:939,1
DA:941,1
DA:942,1
DA:943,1
DA:944,1
DA:946,1
DA:947,1
DA:950,1
DA:951,1
DA:952,1
DA:953,1
DA:954,1
DA:955,1
DA:956,1
DA:957,1
DA:958,1
DA:959,1
DA:960,1
DA:961,1
DA:965,1
DA:966,1
DA:967,1
DA:968,1
DA:970,1
DA:971,1
DA:974,1
DA:975,1
DA:976,1
DA:977,1
DA:979,1
DA:980,1
DA:983,1
DA:984,1
DA:985,1
DA:986,1
DA:988,1
DA:989,1
DA:991,1
DA:992,1
DA:995,1
DA:996,1
DA:997,1
DA:999,1
DA:1000,1
DA:1001,1
DA:1002,1
DA:1005,4097
DA:1006,4097
DA:1007,4097
DA:1012,1
DA:1013,1
DA:1014,1
DA:1015,1
DA:1018,4097
DA:1019,4097
DA:1020,4097
DA:1024,1
DA:1025,1
DA:1026,1
DA:1027,1
DA:1030,4097
DA:1031,4097
DA:1032,4097
DA:1033,4097
DA:1034,4097
DA:1035,0
DA:1036,4097
DA:1037,4097
DA:1038,4097
DA:1042,1
DA:1043,1
DA:1044,1
DA:1045,1
DA:1048,1
DA:1049,1
DA:1050,1
DA:1052,1
DA:1053,1
DA:1056,1
DA:1057,1
DA:1058,1
DA:1060,1
DA:1061,1
DA:1062,1
DA:1063,1
DA:1066,4097
DA:1067,4097
DA:1068,4097
DA:1073,1
DA:1074,1
DA:1075,1
DA:1076,1
DA:1079,4097
DA:1080,4097
DA:1081,4097
DA:1085,1
DA:1086,1
DA:1087,1
DA:1088,1
DA:1091,4097
DA:1092,4097
DA:1093,4097
DA:1094,4097
DA:1095,4097
DA:1096,0
DA:1097,4097
DA:1098,4097
DA:1099,4097
DA:1103,1
DA:1104,1
DA:1105,1
DA:1106,1
DA:1109,1
DA:1110,1
DA:1111,1
DA:1113,1
DA:1114,1
DA:1117,1
DA:1118,1
DA:1119,1
DA:1121,1
DA:1122,1
DA:1123,1
DA:1124,1
DA:1127,1
DA:1128,1
DA:1129,1
DA:1130,4098
DA:1131,4097
DA:1132,4097
DA:1137,1
DA:1138,1
DA:1139,1
DA:1140,1
DA:1143,4097
DA:1144,4097
DA:1145,4097
DA:1149,1
DA:1150,1
DA:1151,1
DA:1152,1
DA:1155,1
DA:1156,1
DA:1157,1
DA:1158,4098
DA:1159,4097
DA:1160,4097
DA:1161,4097
DA:1162,4097
DA:1163,4097
DA:1164,4097
DA:1168,1
DA:1169,1
DA:1170,1
DA:1171,1
DA:1174,1
DA:1175,1
DA:1176,1
DA:1178,1
DA:1179,1
DA:1182,1
DA:1183,1
DA:1184,1
DA:1186,1
DA:1187,1
DA:1188,1
DA:1189,1
DA:1192,1
DA:1193,1
DA:1194,1
DA:1195,4098
DA:1196,4097
DA:1197,4097
DA:1202,1
DA:1203,1
DA:1204,1
DA:1205,1
DA:1208,4097
DA:1209,4097
DA:1210,4097
DA:1214,1
DA:1215,1
DA:1216,1
DA:1217,1
DA:1220,1
DA:1221,1
DA:1222,1
DA:1223,4098
DA:1224,4097
DA:1225,4097
DA:1226,4097
DA:1227,4097
DA:1228,4097
DA:1229,4097
DA:1233,1
DA:1234,1
DA:1235,1
DA:1236,1
DA:1239,1
DA:1240,1
DA:1241,1
DA:1243,1
DA:1244,1
DA:1247,1
DA:1248,1
DA:1250,1
DA:1251,1
DA:1252,1
DA:1253,1
DA:1256,1
DA:1257,1
DA:1258,1
DA:1259,258
DA:1260,257
DA:1261,257
DA:1266,1
DA:1267,1
DA:1268,1
DA:1269,1
DA:1272,1
DA:1273,1
DA:1274,1
DA:1275,1
DA:1278,1
DA:1279,1
DA:1280,1
DA:1281,1
DA:1284,1
DA:1285,1
DA:1286,1
DA:1287,258
DA:1288,257
DA:1289,257
DA:1292,1
DA:1293,1
DA:1296,1
DA:1298,1
DA:1299,1
DA:1300,1
DA:1302,1
DA:1303,1
DA:1304,1
DA:1305,1
DA:1306,1
DA:1307,1
DA:1308,1
DA:1311,1
DA:1312,1
DA:1313,1
DA:1315,1
DA:1316,1
DA:1317,1
DA:1318,1
DA:1321,4096
DA:1322,4096
DA:1323,8386560
DA:1324,8386560
DA:1325,8386560
DA:1332,1
DA:1333,1
DA:1334,1
DA:1335,1
DA:1338,4096
DA:1339,4096
DA:1340,4096
DA:1341,0
DA:1342,4096
DA:1343,4096
DA:1344,4096
DA:1350,1
DA:1351,1
DA:1352,1
DA:1353,1
DA:1356,4096
DA:1357,4096
DA:1358,4096
DA:1359,4096
DA:1360,4096
DA:1361,0
DA:1362,4096
DA:1363,4096
DA:1364,4096
DA:1368,1
DA:1369,1
DA:1370,1
DA:1371,1
DA:1374,1
DA:1375,1
DA:1376,1
DA:1378,1
DA:1379,1
DA:1382,1
DA:1383,1
DA:1384,1
DA:1386,1
DA:1387,1
DA:1388,1
DA:1389,1
DA:1392,4096
DA:1393,4096
DA:1394,8386560
DA:1395,8386560
DA:1396,8386560
DA:1397,0
DA:1398,8386560
DA:1405,1
DA:1406,1
DA:1407,1
DA:1408,1
DA:1411,4096
DA:1412,4096
DA:1413,4096
DA:1414,0
DA:1415,4096
DA:1416,4096
DA:1417,4096
DA:1423,1
DA:1424,1
DA:1425,1
DA:1426,1
DA:1429,4096
DA:1430,4096
DA:1431,4096
DA:1432,4096
DA:1433,4096
DA:1434,0
DA:1435,4096
DA:1436,4096
DA:1437,4096
DA:1441,1
DA:1442,1
DA:1443,1
DA:1444,1
DA:1447,1
DA:1448,1
DA:1449,1
DA:1451,1
DA:1452,1
DA:1455,1
DA:1456,1
DA:1457,1
DA:1458,1
DA:1459,1
DA:1460,1
DA:1461,1
DA:1462,1
DA:1463,1
DA:1464,1
DA:1465,1
DA:1466,1
DA:1470,1
DA:1471,1
DA:1472,1
DA:1473,1
DA:1475,1
DA:1476,1
DA:1478,1
DA:1479,1
BRF:0
BRH:0
LF:951
LH:930
end_of_record
SF:/workspaces/digby/src/db_master_page.rs
FN:16,_RNvXNtCskvx6Wg1ZZUs_5digby14db_master_pageNtB2_12DbMasterPageNtNtB4_4page9PageTrait14get_page_bytes
FN:24,_RNvXNtCskvx6Wg1ZZUs_5digby14db_master_pageNtB2_12DbMasterPageNtNtB4_4page9PageTrait15set_page_number
FN:122,_RNvNtNtCskvx6Wg1ZZUs_5digby14db_master_page5testss_14test_head_page
FN:139,_RNvNtNtCskvx6Wg1ZZUs_5digby14db_master_page5testss_15test_create_new
FN:151,_RNvNtNtCskvx6Wg1ZZUs_5digby14db_master_page5testss_20test_from_page_valid
FN:169,_RNvNtNtCskvx6Wg1ZZUs_5digby14db_master_page5testss_21test_flip_page_number
FN:162,_RNvNtNtCskvx6Wg1ZZUs_5digby14db_master_page5testss_27test_from_page_invalid_type
FN:42,_RNvMs_NtCskvx6Wg1ZZUs_5digby14db_master_pageNtB4_12DbMasterPage10create_new
FN:110,_RNvMs_NtCskvx6Wg1ZZUs_5digby14db_master_pageNtB4_12DbMasterPage16flip_page_number
FN:104,_RNvMs_NtCskvx6Wg1ZZUs_5digby14db_master_pageNtB4_12DbMasterPage17get_u64_at_offset
FN:96,_RNvMs_NtCskvx6Wg1ZZUs_5digby14db_master_pageNtB4_12DbMasterPage17set_u64_at_offset
FN:88,_RNvMs_NtCskvx6Wg1ZZUs_5digby14db_master_pageNtB4_12DbMasterPage21get_table_dir_page_no
FN:92,_RNvMs_NtCskvx6Wg1ZZUs_5digby14db_master_pageNtB4_12DbMasterPage21set_table_dir_page_no
FN:79,_RNvMs_NtCskvx6Wg1ZZUs_5digby14db_master_pageNtB4_12DbMasterPage25get_free_page_dir_page_no
FN:83,_RNvMs_NtCskvx6Wg1ZZUs_5digby14db_master_pageNtB4_12DbMasterPage25set_free_page_dir_page_no
FN:70,_RNvMs_NtCskvx6Wg1ZZUs_5digby14db_master_pageNtB4_12DbMasterPage28get_global_tree_root_page_no
FN:74,_RNvMs_NtCskvx6Wg1ZZUs_5digby14db_master_pageNtB4_12DbMasterPage28set_global_tree_root_page_no
FN:51,_RNvMs_NtCskvx6Wg1ZZUs_5digby14db_master_pageNtB4_12DbMasterPage3new
FN:61,_RNvMs_NtCskvx6Wg1ZZUs_5digby14db_master_pageNtB4_12DbMasterPage9from_page
FN:32,_RNvXNtCskvx6Wg1ZZUs_5digby14db_master_pageNtB2_12DbMasterPageNtNtB4_4page9PageTrait11get_version
FN:36,_RNvXNtCskvx6Wg1ZZUs_5digby14db_master_pageNtB2_12DbMasterPageNtNtB4_4page9PageTrait11set_version
FN:20,_RNvXNtCskvx6Wg1ZZUs_5digby14db_master_pageNtB2_12DbMasterPageNtNtB4_4page9PageTrait15get_page_number
FN:28,_RNvXNtCskvx6Wg1ZZUs_5digby14db_master_pageNtB2_12DbMasterPageNtNtB4_4page9PageTrait8get_page
FN:42,_RNvMs_NtCsgKx49t2KK1I_5digby14db_master_pageNtB4_12DbMasterPage10create_new
FN:110,_RNvMs_NtCsgKx49t2KK1I_5digby14db_master_pageNtB4_12DbMasterPage16flip_page_number
FN:104,_RNvMs_NtCsgKx49t2KK1I_5digby14db_master_pageNtB4_12DbMasterPage17get_u64_at_offset
FN:96,_RNvMs_NtCsgKx49t2KK1I_5digby14db_master_pageNtB4_12DbMasterPage17set_u64_at_offset
FN:88,_RNvMs_NtCsgKx49t2KK1I_5digby14db_master_pageNtB4_12DbMasterPage21get_table_dir_page_no
FN:92,_RNvMs_NtCsgKx49t2KK1I_5digby14db_master_pageNtB4_12DbMasterPage21set_table_dir_page_no
FN:79,_RNvMs_NtCsgKx49t2KK1I_5digby14db_master_pageNtB4_12DbMasterPage25get_free_page_dir_page_no
FN:83,_RNvMs_NtCsgKx49t2KK1I_5digby14db_master_pageNtB4_12DbMasterPage25set_free_page_dir_page_no
FN:70,_RNvMs_NtCsgKx49t2KK1I_5digby14db_master_pageNtB4_12DbMasterPage28get_global_tree_root_page_no
FN:74,_RNvMs_NtCsgKx49t2KK1I_5digby14db_master_pageNtB4_12DbMasterPage28set_global_tree_root_page_no
FN:51,_RNvMs_NtCsgKx49t2KK1I_5digby14db_master_pageNtB4_12DbMasterPage3new
FN:61,_RNvMs_NtCsgKx49t2KK1I_5digby14db_master_pageNtB4_12DbMasterPage9from_page
FN:32,_RNvXNtCsgKx49t2KK1I_5digby14db_master_pageNtB2_12DbMasterPageNtNtB4_4page9PageTrait11get_version
FN:36,_RNvXNtCsgKx49t2KK1I_5digby14db_master_pageNtB2_12DbMasterPageNtNtB4_4page9PageTrait11set_version
FN:16,_RNvXNtCsgKx49t2KK1I_5digby14db_master_pageNtB2_12DbMasterPageNtNtB4_4page9PageTrait14get_page_bytes
FN:20,_RNvXNtCsgKx49t2KK1I_5digby14db_master_pageNtB2_12DbMasterPageNtNtB4_4page9PageTrait15get_page_number
FN:24,_RNvXNtCsgKx49t2KK1I_5digby14db_master_pageNtB2_12DbMasterPageNtNtB4_4page9PageTrait15set_page_number
FN:28,_RNvXNtCsgKx49t2KK1I_5digby14db_master_pageNtB2_12DbMasterPageNtNtB4_4page9PageTrait8get_page
FNDA:0,_RNvXNtCskvx6Wg1ZZUs_5digby14db_master_pageNtB2_12DbMasterPageNtNtB4_4page9PageTrait14get_page_bytes
FNDA:0,_RNvXNtCskvx6Wg1ZZUs_5digby14db_master_pageNtB2_12DbMasterPageNtNtB4_4page9PageTrait15set_page_number
FNDA:1,_RNvNtNtCskvx6Wg1ZZUs_5digby14db_master_page5testss_14test_head_page
FNDA:1,_RNvNtNtCskvx6Wg1ZZUs_5digby14db_master_page5testss_15test_create_new
FNDA:1,_RNvNtNtCskvx6Wg1ZZUs_5digby14db_master_page5testss_20test_from_page_valid
FNDA:1,_RNvNtNtCskvx6Wg1ZZUs_5digby14db_master_page5testss_21test_flip_page_number
FNDA:1,_RNvNtNtCskvx6Wg1ZZUs_5digby14db_master_page5testss_27test_from_page_invalid_type
FNDA:26,_RNvMs_NtCskvx6Wg1ZZUs_5digby14db_master_pageNtB4_12DbMasterPage10create_new
FNDA:49426,_RNvMs_NtCskvx6Wg1ZZUs_5digby14db_master_pageNtB4_12DbMasterPage16flip_page_number
FNDA:16946014,_RNvMs_NtCskvx6Wg1ZZUs_5digby14db_master_pageNtB4_12DbMasterPage17get_u64_at_offset
FNDA:98923,_RNvMs_NtCskvx6Wg1ZZUs_5digby14db_master_pageNtB4_12DbMasterPage17set_u64_at_offset
FNDA:2,_RNvMs_NtCskvx6Wg1ZZUs_5digby14db_master_pageNtB4_12DbMasterPage21get_table_dir_page_no
FNDA:25,_RNvMs_NtCskvx6Wg1ZZUs_5digby14db_master_pageNtB4_12DbMasterPage21set_table_dir_page_no
FNDA:49455,_RNvMs_NtCskvx6Wg1ZZUs_5digby14db_master_pageNtB4_12DbMasterPage25get_free_page_dir_page_no
FNDA:49449,_RNvMs_NtCskvx6Wg1ZZUs_5digby14db_master_pageNtB4_12DbMasterPage25set_free_page_dir_page_no
FNDA:16896557,_RNvMs_NtCskvx6Wg1ZZUs_5digby14db_master_pageNtB4_12DbMasterPage28get_global_tree_root_page_no
FNDA:49449,_RNvMs_NtCskvx6Wg1ZZUs_5digby14db_master_pageNtB4_12DbMasterPage28set_global_tree_root_page_no
FNDA:28,_RNvMs_NtCskvx6Wg1ZZUs_5digby14db_master_pageNtB4_12DbMasterPage3new
FNDA:33793168,_RNvMs_NtCskvx6Wg1ZZUs_5digby14db_master_pageNtB4_12DbMasterPage9from_page
FNDA:33842619,_RNvXNtCskvx6Wg1ZZUs_5digby14db_master_pageNtB2_12DbMasterPageNtNtB4_4page9PageTrait11get_version
FNDA:49453,_RNvXNtCskvx6Wg1ZZUs_5digby14db_master_pageNtB2_12DbMasterPageNtNtB4_4page9PageTrait11set_version
FNDA:49430,_RNvXNtCskvx6Wg1ZZUs_5digby14db_master_pageNtB2_12DbMasterPageNtNtB4_4page9PageTrait15get_page_number
FNDA:49449,_RNvXNtCskvx6Wg1ZZUs_5digby14db_master_pageNtB2_12DbMasterPageNtNtB4_4page9PageTrait8get_page
FNDA:26,_RNvMs_NtCsgKx49t2KK1I_5digby14db_master_pageNtB4_12DbMasterPage10create_new
FNDA:50,_RNvMs_NtCsgKx49t2KK1I_5digby14db_master_pageNtB4_12DbMasterPage16flip_page_number
FNDA:220,_RNvMs_NtCsgKx49t2KK1I_5digby14db_master_pageNtB4_12DbMasterPage17get_u64_at_offset
FNDA:178,_RNvMs_NtCsgKx49t2KK1I_5digby14db_master_pageNtB4_12DbMasterPage17set_u64_at_offset
FNDA:47,_RNvMs_NtCsgKx49t2KK1I_5digby14db_master_pageNtB4_12DbMasterPage21get_table_dir_page_no
FNDA:38,_RNvMs_NtCsgKx49t2KK1I_5digby14db_master_pageNtB4_12DbMasterPage21set_table_dir_page_no
FNDA:64,_RNvMs_NtCsgKx49t2KK1I_5digby14db_master_pageNtB4_12DbMasterPage25get_free_page_dir_page_no
FNDA:76,_RNvMs_NtCsgKx49t2KK1I_5digby14db_master_pageNtB4_12DbMasterPage25set_free_page_dir_page_no
FNDA:109,_RNvMs_NtCsgKx49t2KK1I_5digby14db_master_pageNtB4_12DbMasterPage28get_global_tree_root_page_no
FNDA:64,_RNvMs_NtCsgKx49t2KK1I_5digby14db_master_pageNtB4_12DbMasterPage28set_global_tree_root_page_no
FNDA:26,_RNvMs_NtCsgKx49t2KK1I_5digby14db_master_pageNtB4_12DbMasterPage3new
FNDA:340,_RNvMs_NtCsgKx49t2KK1I_5digby14db_master_pageNtB4_12DbMasterPage9from_page
FNDA:404,_RNvXNtCsgKx49t2KK1I_5digby14db_master_pageNtB2_12DbMasterPageNtNtB4_4page9PageTrait11get_version
FNDA:76,_RNvXNtCsgKx49t2KK1I_5digby14db_master_pageNtB2_12DbMasterPageNtNtB4_4page9PageTrait11set_version
FNDA:0,_RNvXNtCsgKx49t2KK1I_5digby14db_master_pageNtB2_12DbMasterPageNtNtB4_4page9PageTrait14get_page_bytes
FNDA:50,_RNvXNtCsgKx49t2KK1I_5digby14db_master_pageNtB2_12DbMasterPageNtNtB4_4page9PageTrait15get_page_number
FNDA:0,_RNvXNtCsgKx49t2KK1I_5digby14db_master_pageNtB2_12DbMasterPageNtNtB4_4page9PageTrait15set_page_number
FNDA:76,_RNvXNtCsgKx49t2KK1I_5digby14db_master_pageNtB2_12DbMasterPageNtNtB4_4page9PageTrait8get_page
FNF:23
FNH:21
DA:16,0
DA:17,0
DA:18,0
DA:20,49480
DA:21,49480
DA:22,49480
DA:24,0
DA:25,0
DA:26,0
DA:28,49525
DA:29,49525
DA:30,49525
DA:32,33843023
DA:33,33843023
DA:34,33843023
DA:36,49529
DA:37,49529
DA:38,49529
DA:42,52
DA:43,52
DA:44,52
DA:45,52
DA:46,52
DA:47,52
DA:49,52
DA:51,54
DA:52,54
DA:53,54
DA:54,54
DA:55,54
DA:56,54
DA:57,54
DA:58,54
DA:59,54
DA:61,33793508
DA:62,33793508
DA:63,1
DA:64,33793507
DA:66,33793507
DA:67,33793507
DA:70,16896666
DA:71,16896666
DA:72,16896666
DA:74,49513
DA:75,49513
DA:76,49513
DA:79,49519
DA:80,49519
DA:81,49519
DA:83,49525
DA:84,49525
DA:85,49525
DA:88,49
DA:89,49
DA:90,49
DA:92,63
DA:93,63
DA:94,63
DA:96,99101
DA:97,99101
DA:98,99101
DA:99,99101
DA:100,99101
DA:101,99101
DA:102,99101
DA:104,16946234
DA:105,16946234
DA:106,16946234
DA:107,16946234
DA:108,16946234
DA:110,49476
DA:111,49476
DA:112,49476
DA:113,49476
DA:114,49476
DA:122,1
DA:123,1
DA:124,1
DA:125,1
DA:126,1
DA:127,1
DA:128,1
DA:129,1
DA:130,1
DA:131,1
DA:132,1
DA:133,1
DA:134,1
DA:135,1
DA:136,1
DA:139,1
DA:140,1
DA:141,1
DA:142,1
DA:143,1
DA:144,1
DA:145,1
DA:146,1
DA:147,1
DA:148,1
DA:151,1
DA:152,1
DA:153,1
DA:154,1
DA:156,1
DA:157,1
DA:158,1
DA:162,1
DA:163,1
DA:164,1
DA:165,1
DA:166,1
DA:169,1
DA:170,1
DA:171,1
DA:172,1
DA:174,1
DA:175,1
DA:176,1
BRF:0
BRH:0
LF:119
LH:113
end_of_record
SF:/workspaces/digby/src/db_root_page.rs
FN:154,_RNvNtNtCskvx6Wg1ZZUs_5digby12db_root_page5testss_15test_create_new
FN:169,_RNvNtNtCskvx6Wg1ZZUs_5digby12db_root_page5testss_20test_from_page_valid
FN:213,_RNvNtNtCskvx6Wg1ZZUs_5digby12db_root_page5testss_24test_setters_and_getters
FN:187,_RNvNtNtCskvx6Wg1ZZUs_5digby12db_root_page5testss_27test_from_page_invalid_type
FN:195,_RNvNtNtCskvx6Wg1ZZUs_5digby12db_root_page5testss_34test_from_page_invalid_page_number
FN:204,_RNvNtNtCskvx6Wg1ZZUs_5digby12db_root_page5testss_35test_from_page_invalid_magic_number
FN:17,_RNvXNtCskvx6Wg1ZZUs_5digby12db_root_pageNtB2_10DbRootPageNtNtB4_4page9PageTrait14get_page_bytes
FN:25,_RNvXNtCskvx6Wg1ZZUs_5digby12db_root_pageNtB2_10DbRootPageNtNtB4_4page9PageTrait15set_page_number
FN:47,_RNvMs_NtCskvx6Wg1ZZUs_5digby12db_root_pageNtB4_10DbRootPage10create_new
FN:120,_RNvMs_NtCskvx6Wg1ZZUs_5digby12db_root_pageNtB4_10DbRootPage15get_sanity_type
FN:126,_RNvMs_NtCskvx6Wg1ZZUs_5digby12db_root_pageNtB4_10DbRootPage15set_sanity_type
FN:78,_RNvMs_NtCskvx6Wg1ZZUs_5digby12db_root_pageNtB4_10DbRootPage16get_magic_number
FN:84,_RNvMs_NtCskvx6Wg1ZZUs_5digby12db_root_pageNtB4_10DbRootPage16set_magic_number
FN:134,_RNvMs_NtCskvx6Wg1ZZUs_5digby12db_root_pageNtB4_10DbRootPage20get_compression_type
FN:92,_RNvMs_NtCskvx6Wg1ZZUs_5digby12db_root_pageNtB4_10DbRootPage20get_db_major_version
FN:106,_RNvMs_NtCskvx6Wg1ZZUs_5digby12db_root_pageNtB4_10DbRootPage20get_db_minor_version
FN:140,_RNvMs_NtCskvx6Wg1ZZUs_5digby12db_root_pageNtB4_10DbRootPage20set_compression_type
FN:98,_RNvMs_NtCskvx6Wg1ZZUs_5digby12db_root_pageNtB4_10DbRootPage20set_db_major_version
FN:112,_RNvMs_NtCskvx6Wg1ZZUs_5digby12db_root_pageNtB4_10DbRootPage20set_db_minor_version
FN:51,_RNvMs_NtCskvx6Wg1ZZUs_5digby12db_root_pageNtB4_10DbRootPage3new
FN:63,_RNvMs_NtCskvx6Wg1ZZUs_5digby12db_root_pageNtB4_10DbRootPage9from_page
FN:33,_RNvXNtCskvx6Wg1ZZUs_5digby12db_root_pageNtB2_10DbRootPageNtNtB4_4page9PageTrait11get_version
FN:37,_RNvXNtCskvx6Wg1ZZUs_5digby12db_root_pageNtB2_10DbRootPageNtNtB4_4page9PageTrait11set_version
FN:21,_RNvXNtCskvx6Wg1ZZUs_5digby12db_root_pageNtB2_10DbRootPageNtNtB4_4page9PageTrait15get_page_number
FN:29,_RNvXNtCskvx6Wg1ZZUs_5digby12db_root_pageNtB2_10DbRootPageNtNtB4_4page9PageTrait8get_page
FN:47,_RNvMs_NtCsgKx49t2KK1I_5digby12db_root_pageNtB4_10DbRootPage10create_new
FN:120,_RNvMs_NtCsgKx49t2KK1I_5digby12db_root_pageNtB4_10DbRootPage15get_sanity_type
FN:126,_RNvMs_NtCsgKx49t2KK1I_5digby12db_root_pageNtB4_10DbRootPage15set_sanity_type
FN:78,_RNvMs_NtCsgKx49t2KK1I_5digby12db_root_pageNtB4_10DbRootPage16get_magic_number
FN:84,_RNvMs_NtCsgKx49t2KK1I_5digby12db_root_pageNtB4_10DbRootPage16set_magic_number
FN:134,_RNvMs_NtCsgKx49t2KK1I_5digby12db_root_pageNtB4_10DbRootPage20get_compression_type
FN:92,_RNvMs_NtCsgKx49t2KK1I_5digby12db_root_pageNtB4_10DbRootPage20get_db_major_version
FN:106,_RNvMs_NtCsgKx49t2KK1I_5digby12db_root_pageNtB4_10DbRootPage20get_db_minor_version
FN:140,_RNvMs_NtCsgKx49t2KK1I_5digby12db_root_pageNtB4_10DbRootPage20set_compression_type
FN:98,_RNvMs_NtCsgKx49t2KK1I_5digby12db_root_pageNtB4_10DbRootPage20set_db_major_version
FN:112,_RNvMs_NtCsgKx49t2KK1I_5digby12db_root_pageNtB4_10DbRootPage20set_db_minor_version
FN:51,_RNvMs_NtCsgKx49t2KK1I_5digby12db_root_pageNtB4_10DbRootPage3new
FN:63,_RNvMs_NtCsgKx49t2KK1I_5digby12db_root_pageNtB4_10DbRootPage9from_page
FN:33,_RNvXNtCsgKx49t2KK1I_5digby12db_root_pageNtB2_10DbRootPageNtNtB4_4page9PageTrait11get_version
FN:37,_RNvXNtCsgKx49t2KK1I_5digby12db_root_pageNtB2_10DbRootPageNtNtB4_4page9PageTrait11set_version
FN:17,_RNvXNtCsgKx49t2KK1I_5digby12db_root_pageNtB2_10DbRootPageNtNtB4_4page9PageTrait14get_page_bytes
FN:21,_RNvXNtCsgKx49t2KK1I_5digby12db_root_pageNtB2_10DbRootPageNtNtB4_4page9PageTrait15get_page_number
FN:25,_RNvXNtCsgKx49t2KK1I_5digby12db_root_pageNtB2_10DbRootPageNtNtB4_4page9PageTrait15set_page_number
FN:29,_RNvXNtCsgKx49t2KK1I_5digby12db_root_pageNtB2_10DbRootPageNtNtB4_4page9PageTrait8get_page
FNDA:1,_RNvNtNtCskvx6Wg1ZZUs_5digby12db_root_page5testss_15test_create_new
FNDA:1,_RNvNtNtCskvx6Wg1ZZUs_5digby12db_root_page5testss_20test_from_page_valid
FNDA:1,_RNvNtNtCskvx6Wg1ZZUs_5digby12db_root_page5testss_24test_setters_and_getters
FNDA:1,_RNvNtNtCskvx6Wg1ZZUs_5digby12db_root_page5testss_27test_from_page_invalid_type
FNDA:1,_RNvNtNtCskvx6Wg1ZZUs_5digby12db_root_page5testss_34test_from_page_invalid_page_number
FNDA:1,_RNvNtNtCskvx6Wg1ZZUs_5digby12db_root_page5testss_35test_from_page_invalid_magic_number
FNDA:0,_RNvXNtCskvx6Wg1ZZUs_5digby12db_root_pageNtB2_10DbRootPageNtNtB4_4page9PageTrait14get_page_bytes
FNDA:0,_RNvXNtCskvx6Wg1ZZUs_5digby12db_root_pageNtB2_10DbRootPageNtNtB4_4page9PageTrait15set_page_number
FNDA:14,_RNvMs_NtCskvx6Wg1ZZUs_5digby12db_root_pageNtB4_10DbRootPage10create_new
FNDA:29,_RNvMs_NtCskvx6Wg1ZZUs_5digby12db_root_pageNtB4_10DbRootPage15get_sanity_type
FNDA:14,_RNvMs_NtCskvx6Wg1ZZUs_5digby12db_root_pageNtB4_10DbRootPage15set_sanity_type
FNDA:31,_RNvMs_NtCskvx6Wg1ZZUs_5digby12db_root_pageNtB4_10DbRootPage16get_magic_number
FNDA:14,_RNvMs_NtCskvx6Wg1ZZUs_5digby12db_root_pageNtB4_10DbRootPage16set_magic_number
FNDA:28,_RNvMs_NtCskvx6Wg1ZZUs_5digby12db_root_pageNtB4_10DbRootPage20get_compression_type
FNDA:1,_RNvMs_NtCskvx6Wg1ZZUs_5digby12db_root_pageNtB4_10DbRootPage20get_db_major_version
FNDA:1,_RNvMs_NtCskvx6Wg1ZZUs_5digby12db_root_pageNtB4_10DbRootPage20get_db_minor_version
FNDA:13,_RNvMs_NtCskvx6Wg1ZZUs_5digby12db_root_pageNtB4_10DbRootPage20set_compression_type
FNDA:14,_RNvMs_NtCskvx6Wg1ZZUs_5digby12db_root_pageNtB4_10DbRootPage20set_db_major_version
FNDA:14,_RNvMs_NtCskvx6Wg1ZZUs_5digby12db_root_pageNtB4_10DbRootPage20set_db_minor_version
FNDA:14,_RNvMs_NtCskvx6Wg1ZZUs_5digby12db_root_pageNtB4_10DbRootPage3new
FNDA:31,_RNvMs_NtCskvx6Wg1ZZUs_5digby12db_root_pageNtB4_10DbRootPage9from_page
FNDA:1,_RNvXNtCskvx6Wg1ZZUs_5digby12db_root_pageNtB2_10DbRootPageNtNtB4_4page9PageTrait11get_version
FNDA:1,_RNvXNtCskvx6Wg1ZZUs_5digby12db_root_pageNtB2_10DbRootPageNtNtB4_4page9PageTrait11set_version
FNDA:1,_RNvXNtCskvx6Wg1ZZUs_5digby12db_root_pageNtB2_10DbRootPageNtNtB4_4page9PageTrait15get_page_number
FNDA:12,_RNvXNtCskvx6Wg1ZZUs_5digby12db_root_pageNtB2_10DbRootPageNtNtB4_4page9PageTrait8get_page
FNDA:13,_RNvMs_NtCsgKx49t2KK1I_5digby12db_root_pageNtB4_10DbRootPage10create_new
FNDA:12,_RNvMs_NtCsgKx49t2KK1I_5digby12db_root_pageNtB4_10DbRootPage15get_sanity_type
FNDA:13,_RNvMs_NtCsgKx49t2KK1I_5digby12db_root_pageNtB4_10DbRootPage15set_sanity_type
FNDA:12,_RNvMs_NtCsgKx49t2KK1I_5digby12db_root_pageNtB4_10DbRootPage16get_magic_number
FNDA:13,_RNvMs_NtCsgKx49t2KK1I_5digby12db_root_pageNtB4_10DbRootPage16set_magic_number
FNDA:12,_RNvMs_NtCsgKx49t2KK1I_5digby12db_root_pageNtB4_10DbRootPage20get_compression_type
FNDA:0,_RNvMs_NtCsgKx49t2KK1I_5digby12db_root_pageNtB4_10DbRootPage20get_db_major_version
FNDA:0,_RNvMs_NtCsgKx49t2KK1I_5digby12db_root_pageNtB4_10DbRootPage20get_db_minor_version
FNDA:13,_RNvMs_NtCsgKx49t2KK1I_5digby12db_root_pageNtB4_10DbRootPage20set_compression_type
FNDA:13,_RNvMs_NtCsgKx49t2KK1I_5digby12db_root_pageNtB4_10DbRootPage20set_db_major_version
FNDA:13,_RNvMs_NtCsgKx49t2KK1I_5digby12db_root_pageNtB4_10DbRootPage20set_db_minor_version
FNDA:13,_RNvMs_NtCsgKx49t2KK1I_5digby12db_root_pageNtB4_10DbRootPage3new
FNDA:12,_RNvMs_NtCsgKx49t2KK1I_5digby12db_root_pageNtB4_10DbRootPage9from_page
FNDA:0,_RNvXNtCsgKx49t2KK1I_5digby12db_root_pageNtB2_10DbRootPageNtNtB4_4page9PageTrait11get_version
FNDA:0,_RNvXNtCsgKx49t2KK1I_5digby12db_root_pageNtB2_10DbRootPageNtNtB4_4page9PageTrait11set_version
FNDA:0,_RNvXNtCsgKx49t2KK1I_5digby12db_root_pageNtB2_10DbRootPageNtNtB4_4page9PageTrait14get_page_bytes
FNDA:0,_RNvXNtCsgKx49t2KK1I_5digby12db_root_pageNtB2_10DbRootPageNtNtB4_4page9PageTrait15get_page_number
FNDA:0,_RNvXNtCsgKx49t2KK1I_5digby12db_root_pageNtB2_10DbRootPageNtNtB4_4page9PageTrait15set_page_number
FNDA:13,_RNvXNtCsgKx49t2KK1I_5digby12db_root_pageNtB2_10DbRootPageNtNtB4_4page9PageTrait8get_page
FNF:25
FNH:23
DA:17,0
DA:18,0
DA:19,0
DA:21,1
DA:22,1
DA:23,1
DA:25,0
DA:26,0
DA:27,0
DA:29,25
DA:30,25
DA:31,25
DA:33,1
DA:34,1
DA:35,1
DA:37,1
DA:38,1
DA:39,1
DA:47,27
DA:48,27
DA:49,27
DA:51,27
DA:52,27
DA:53,27
DA:54,27
DA:55,27
DA:56,27
DA:57,27
DA:58,27
DA:59,27
DA:60,27
DA:61,27
DA:63,43
DA:64,43
DA:65,1
DA:66,42
DA:67,42
DA:68,1
DA:69,41
DA:70,41
DA:71,41
DA:72,1
DA:73,40
DA:75,40
DA:76,40
DA:78,43
DA:79,43
DA:80,43
DA:81,43
DA:82,43
DA:84,27
DA:85,27
DA:86,27
DA:87,27
DA:88,27
DA:89,27
DA:90,27
DA:92,1
DA:93,1
DA:94,1
DA:95,1
DA:96,1
DA:98,27
DA:99,27
DA:100,27
DA:101,27
DA:102,27
DA:103,27
DA:104,27
DA:106,1
DA:107,1
DA:108,1
DA:109,1
DA:110,1
DA:112,27
DA:113,27
DA:114,27
DA:115,27
DA:116,27
DA:117,27
DA:118,27
DA:120,41
DA:121,41
DA:122,41
DA:123,41
DA:124,41
DA:126,27
DA:127,27
DA:128,27
DA:129,27
DA:130,27
DA:131,27
DA:132,27
DA:134,40
DA:135,40
DA:136,40
DA:137,40
DA:138,40
DA:140,26
DA:141,26
DA:142,26
DA:143,26
DA:144,26
DA:145,26
DA:146,26
DA:154,1
DA:155,1
DA:156,1
DA:157,1
DA:158,1
DA:159,1
DA:161,1
DA:162,1
DA:163,1
DA:164,1
DA:165,1
DA:166,1
DA:169,1
DA:170,1
DA:171,1
DA:172,1
DA:175,1
DA:176,1
DA:177,1
DA:178,1
DA:179,1
DA:181,1
DA:182,1
DA:183,1
DA:187,1
DA:188,1
DA:189,1
DA:190,1
DA:191,1
DA:195,1
DA:196,1
DA:197,1
DA:198,1
DA:199,1
DA:200,1
DA:204,1
DA:205,1
DA:206,1
DA:207,1
DA:209,1
DA:210,1
DA:213,1
DA:214,1
DA:215,1
DA:216,1
DA:217,1
DA:218,1
DA:220,1
DA:221,1
DA:223,1
DA:224,1
DA:226,1
DA:227,1
DA:229,1
DA:230,1
DA:231,1
BRF:0
BRH:0
LF:161
LH:155
end_of_record
SF:/workspaces/digby/src/dir_page.rs
FN:693,_RNCNvMs_NtCskvx6Wg1ZZUs_5digby8dir_pageNtB6_7DirPage12split_page_20B8_
FN:748,_RNCNvMs_NtCskvx6Wg1ZZUs_5digby8dir_pageNtB6_7DirPage12split_page_30B8_
FN:801,_RNCNvMs_NtCskvx6Wg1ZZUs_5digby8dir_pageNtB6_7DirPage12split_page_40B8_
FN:814,_RNCNvMs_NtCskvx6Wg1ZZUs_5digby8dir_pageNtB6_7DirPage12split_page_4s_0B8_
FN:400,_RNCNvMs_NtCskvx6Wg1ZZUs_5digby8dir_pageNtB6_7DirPage25reset_with_new_left_fence0B8_
FN:365,_RNCNvMs_NtCskvx6Wg1ZZUs_5digby8dir_pageNtB6_7DirPage26reset_with_new_right_fence0B8_
FN:13,_RNvXNtCskvx6Wg1ZZUs_5digby8dir_pageNtB2_7DirPageNtNtB4_4page9PageTrait14get_page_bytes
FN:1006,_RNvNtNtCskvx6Wg1ZZUs_5digby8dir_page5testss_15test_create_new
FN:1159,_RNvNtNtCskvx6Wg1ZZUs_5digby8dir_page5testss_15test_split_page
FN:1113,_RNvNtNtCskvx6Wg1ZZUs_5digby8dir_page5testss_18test_get_next_page
FN:1022,_RNvNtNtCskvx6Wg1ZZUs_5digby8dir_page5testss_19test_add_child_page
FN:1080,_RNvNtNtCskvx6Wg1ZZUs_5digby8dir_page5testss_36test_add_child_page_reset_left_fence
FN:1048,_RNvNtNtCskvx6Wg1ZZUs_5digby8dir_page5testss_37test_add_child_page_reset_right_fence
FN:57,_RNvMs_NtCskvx6Wg1ZZUs_5digby8dir_pageNtB4_7DirPage10create_new
FN:829,_RNvMs_NtCskvx6Wg1ZZUs_5digby8dir_pageNtB4_7DirPage10split_page
FN:592,_RNvMs_NtCskvx6Wg1ZZUs_5digby8dir_pageNtB4_7DirPage12split_page_1
FN:648,_RNvMs_NtCskvx6Wg1ZZUs_5digby8dir_pageNtB4_7DirPage12split_page_2
FN:708,_RNvMs_NtCskvx6Wg1ZZUs_5digby8dir_pageNtB4_7DirPage12split_page_3
FN:768,_RNvMs_NtCskvx6Wg1ZZUs_5digby8dir_pageNtB4_7DirPage12split_page_4
FN:920,_RNvMs_NtCskvx6Wg1ZZUs_5digby8dir_pageNtB4_7DirPage13get_next_page
FN:423,_RNvMs_NtCskvx6Wg1ZZUs_5digby8dir_pageNtB4_7DirPage14add_child_page
FN:106,_RNvMs_NtCskvx6Wg1ZZUs_5digby8dir_pageNtB4_7DirPage14get_free_space
FN:264,_RNvMs_NtCskvx6Wg1ZZUs_5digby8dir_pageNtB4_7DirPage14get_key_prefix
FN:581,_RNvMs_NtCskvx6Wg1ZZUs_5digby8dir_pageNtB4_7DirPage14get_key_values
FN:160,_RNvMs_NtCskvx6Wg1ZZUs_5digby8dir_pageNtB4_7DirPage14has_left_fence
FN:111,_RNvMs_NtCskvx6Wg1ZZUs_5digby8dir_pageNtB4_7DirPage14set_free_space
FN:259,_RNvMs_NtCskvx6Wg1ZZUs_5digby8dir_pageNtB4_7DirPage15get_key_at_slot
FN:202,_RNvMs_NtCskvx6Wg1ZZUs_5digby8dir_pageNtB4_7DirPage15has_right_fence
FN:948,_RNvMs_NtCskvx6Wg1ZZUs_5digby8dir_pageNtB4_7DirPage15remove_key_page
FN:131,_RNvMs_NtCskvx6Wg1ZZUs_5digby8dir_pageNtB4_7DirPage16get_dir_left_key
FN:96,_RNvMs_NtCskvx6Wg1ZZUs_5digby8dir_pageNtB4_7DirPage16get_entries_size
FN:569,_RNvMs_NtCskvx6Wg1ZZUs_5digby8dir_pageNtB4_7DirPage16get_key_at_index
FN:120,_RNvMs_NtCskvx6Wg1ZZUs_5digby8dir_pageNtB4_7DirPage16get_page_to_left
FN:101,_RNvMs_NtCskvx6Wg1ZZUs_5digby8dir_pageNtB4_7DirPage16set_entries_size
FN:125,_RNvMs_NtCskvx6Wg1ZZUs_5digby8dir_pageNtB4_7DirPage16set_page_to_left
FN:272,_RNvMs_NtCskvx6Wg1ZZUs_5digby8dir_pageNtB4_7DirPage17get_index_for_key
FN:116,_RNvMs_NtCskvx6Wg1ZZUs_5digby8dir_pageNtB4_7DirPage17get_prefix_length
FN:238,_RNvMs_NtCskvx6Wg1ZZUs_5digby8dir_pageNtB4_7DirPage17get_slot_at_index
FN:254,_RNvMs_NtCskvx6Wg1ZZUs_5digby8dir_pageNtB4_7DirPage17get_value_at_slot
FN:226,_RNvMs_NtCskvx6Wg1ZZUs_5digby8dir_pageNtB4_7DirPage17set_prefix_length
FN:247,_RNvMs_NtCskvx6Wg1ZZUs_5digby8dir_pageNtB4_7DirPage17set_slot_at_index
FN:473,_RNvMs_NtCskvx6Wg1ZZUs_5digby8dir_pageNtB4_7DirPage17store_child_pages
FN:178,_RNvMs_NtCskvx6Wg1ZZUs_5digby8dir_pageNtB4_7DirPage18get_left_fence_key
FN:142,_RNvMs_NtCskvx6Wg1ZZUs_5digby8dir_pageNtB4_7DirPage18set_left_fence_key
FN:982,_RNvMs_NtCskvx6Wg1ZZUs_5digby8dir_pageNtB4_7DirPage19get_all_child_pages
FN:532,_RNvMs_NtCskvx6Wg1ZZUs_5digby8dir_pageNtB4_7DirPage19get_page_no_for_key
FN:220,_RNvMs_NtCskvx6Wg1ZZUs_5digby8dir_pageNtB4_7DirPage19get_right_fence_key
FN:184,_RNvMs_NtCskvx6Wg1ZZUs_5digby8dir_pageNtB4_7DirPage19set_right_fence_key
FN:164,_RNvMs_NtCskvx6Wg1ZZUs_5digby8dir_pageNtB4_7DirPage20clear_left_fence_key
FN:552,_RNvMs_NtCskvx6Wg1ZZUs_5digby8dir_pageNtB4_7DirPage20get_page_no_at_index
FN:318,_RNvMs_NtCskvx6Wg1ZZUs_5digby8dir_pageNtB4_7DirPage20update_child_page_no
FN:206,_RNvMs_NtCskvx6Wg1ZZUs_5digby8dir_pageNtB4_7DirPage21clear_right_fence_key
FN:306,_RNvMs_NtCskvx6Wg1ZZUs_5digby8dir_pageNtB4_7DirPage21shift_slots_left_from
FN:500,_RNvMs_NtCskvx6Wg1ZZUs_5digby8dir_pageNtB4_7DirPage22add_key_value_at_index
FN:294,_RNvMs_NtCskvx6Wg1ZZUs_5digby8dir_pageNtB4_7DirPage22shift_slots_right_from
FN:564,_RNvMs_NtCskvx6Wg1ZZUs_5digby8dir_pageNtB4_7DirPage23get_key_suffix_at_index
FN:169,_RNvMs_NtCskvx6Wg1ZZUs_5digby8dir_pageNtB4_7DirPage23get_left_fence_key_size
FN:493,_RNvMs_NtCskvx6Wg1ZZUs_5digby8dir_pageNtB4_7DirPage24calculate_entries_offset
FN:216,_RNvMs_NtCskvx6Wg1ZZUs_5digby8dir_pageNtB4_7DirPage24get_right_fence_key_size
FN:173,_RNvMs_NtCskvx6Wg1ZZUs_5digby8dir_pageNtB4_7DirPage25get_left_fence_key_offset
FN:865,_RNvMs_NtCskvx6Wg1ZZUs_5digby8dir_pageNtB4_7DirPage25remove_key_value_at_index
FN:388,_RNvMs_NtCskvx6Wg1ZZUs_5digby8dir_pageNtB4_7DirPage25reset_with_new_left_fence
FN:211,_RNvMs_NtCskvx6Wg1ZZUs_5digby8dir_pageNtB4_7DirPage26get_right_fence_key_offset
FN:355,_RNvMs_NtCskvx6Wg1ZZUs_5digby8dir_pageNtB4_7DirPage26reset_with_new_right_fence
FN:557,_RNvMs_NtCskvx6Wg1ZZUs_5digby8dir_pageNtB4_7DirPage33get_key_suffix_and_value_at_index
FN:66,_RNvMs_NtCskvx6Wg1ZZUs_5digby8dir_pageNtB4_7DirPage3new
FN:88,_RNvMs_NtCskvx6Wg1ZZUs_5digby8dir_pageNtB4_7DirPage5reset
FN:138,_RNvMs_NtCskvx6Wg1ZZUs_5digby8dir_pageNtB4_7DirPage8is_empty
FN:81,_RNvMs_NtCskvx6Wg1ZZUs_5digby8dir_pageNtB4_7DirPage9from_page
FN:29,_RNvXNtCskvx6Wg1ZZUs_5digby8dir_pageNtB2_7DirPageNtNtB4_4page9PageTrait11get_version
FN:33,_RNvXNtCskvx6Wg1ZZUs_5digby8dir_pageNtB2_7DirPageNtNtB4_4page9PageTrait11set_version
FN:17,_RNvXNtCskvx6Wg1ZZUs_5digby8dir_pageNtB2_7DirPageNtNtB4_4page9PageTrait15get_page_number
FN:21,_RNvXNtCskvx6Wg1ZZUs_5digby8dir_pageNtB2_7DirPageNtNtB4_4page9PageTrait15set_page_number
FN:25,_RNvXNtCskvx6Wg1ZZUs_5digby8dir_pageNtB2_7DirPageNtNtB4_4page9PageTrait8get_page
FN:693,_RNCNvMs_NtCsgKx49t2KK1I_5digby8dir_pageNtB6_7DirPage12split_page_20B8_
FN:748,_RNCNvMs_NtCsgKx49t2KK1I_5digby8dir_pageNtB6_7DirPage12split_page_30B8_
FN:801,_RNCNvMs_NtCsgKx49t2KK1I_5digby8dir_pageNtB6_7DirPage12split_page_40B8_
FN:814,_RNCNvMs_NtCsgKx49t2KK1I_5digby8dir_pageNtB6_7DirPage12split_page_4s_0B8_
FN:400,_RNCNvMs_NtCsgKx49t2KK1I_5digby8dir_pageNtB6_7DirPage25reset_with_new_left_fence0B8_
FN:365,_RNCNvMs_NtCsgKx49t2KK1I_5digby8dir_pageNtB6_7DirPage26reset_with_new_right_fence0B8_
FN:57,_RNvMs_NtCsgKx49t2KK1I_5digby8dir_pageNtB4_7DirPage10create_new
FN:829,_RNvMs_NtCsgKx49t2KK1I_5digby8dir_pageNtB4_7DirPage10split_page
FN:592,_RNvMs_NtCsgKx49t2KK1I_5digby8dir_pageNtB4_7DirPage12split_page_1
FN:648,_RNvMs_NtCsgKx49t2KK1I_5digby8dir_pageNtB4_7DirPage12split_page_2
FN:708,_RNvMs_NtCsgKx49t2KK1I_5digby8dir_pageNtB4_7DirPage12split_page_3
FN:768,_RNvMs_NtCsgKx49t2KK1I_5digby8dir_pageNtB4_7DirPage12split_page_4
FN:920,_RNvMs_NtCsgKx49t2KK1I_5digby8dir_pageNtB4_7DirPage13get_next_page
FN:423,_RNvMs_NtCsgKx49t2KK1I_5digby8dir_pageNtB4_7DirPage14add_child_page
FN:106,_RNvMs_NtCsgKx49t2KK1I_5digby8dir_pageNtB4_7DirPage14get_free_space
FN:264,_RNvMs_NtCsgKx49t2KK1I_5digby8dir_pageNtB4_7DirPage14get_key_prefix
FN:581,_RNvMs_NtCsgKx49t2KK1I_5digby8dir_pageNtB4_7DirPage14get_key_values
FN:160,_RNvMs_NtCsgKx49t2KK1I_5digby8dir_pageNtB4_7DirPage14has_left_fence
FN:111,_RNvMs_NtCsgKx49t2KK1I_5digby8dir_pageNtB4_7DirPage14set_free_space
FN:259,_RNvMs_NtCsgKx49t2KK1I_5digby8dir_pageNtB4_7DirPage15get_key_at_slot
FN:202,_RNvMs_NtCsgKx49t2KK1I_5digby8dir_pageNtB4_7DirPage15has_right_fence
FN:948,_RNvMs_NtCsgKx49t2KK1I_5digby8dir_pageNtB4_7DirPage15remove_key_page
FN:131,_RNvMs_NtCsgKx49t2KK1I_5digby8dir_pageNtB4_7DirPage16get_dir_left_key
FN:96,_RNvMs_NtCsgKx49t2KK1I_5digby8dir_pageNtB4_7DirPage16get_entries_size
FN:569,_RNvMs_NtCsgKx49t2KK1I_5digby8dir_pageNtB4_7DirPage16get_key_at_index
FN:120,_RNvMs_NtCsgKx49t2KK1I_5digby8dir_pageNtB4_7DirPage16get_page_to_left
FN:101,_RNvMs_NtCsgKx49t2KK1I_5digby8dir_pageNtB4_7DirPage16set_entries_size
FN:125,_RNvMs_NtCsgKx49t2KK1I_5digby8dir_pageNtB4_7DirPage16set_page_to_left
FN:272,_RNvMs_NtCsgKx49t2KK1I_5digby8dir_pageNtB4_7DirPage17get_index_for_key
FN:116,_RNvMs_NtCsgKx49t2KK1I_5digby8dir_pageNtB4_7DirPage17get_prefix_length
FN:238,_RNvMs_NtCsgKx49t2KK1I_5digby8dir_pageNtB4_7DirPage17get_slot_at_index
FN:254,_RNvMs_NtCsgKx49t2KK1I_5digby8dir_pageNtB4_7DirPage17get_value_at_slot
FN:226,_RNvMs_NtCsgKx49t2KK1I_5digby8dir_pageNtB4_7DirPage17set_prefix_length
FN:247,_RNvMs_NtCsgKx49t2KK1I_5digby8dir_pageNtB4_7DirPage17set_slot_at_index
FN:473,_RNvMs_NtCsgKx49t2KK1I_5digby8dir_pageNtB4_7DirPage17store_child_pages
FN:178,_RNvMs_NtCsgKx49t2KK1I_5digby8dir_pageNtB4_7DirPage18get_left_fence_key
FN:142,_RNvMs_NtCsgKx49t2KK1I_5digby8dir_pageNtB4_7DirPage18set_left_fence_key
FN:982,_RNvMs_NtCsgKx49t2KK1I_5digby8dir_pageNtB4_7DirPage19get_all_child_pages
FN:532,_RNvMs_NtCsgKx49t2KK1I_5digby8dir_pageNtB4_7DirPage19get_page_no_for_key
FN:220,_RNvMs_NtCsgKx49t2KK1I_5digby8dir_pageNtB4_7DirPage19get_right_fence_key
FN:184,_RNvMs_NtCsgKx49t2KK1I_5digby8dir_pageNtB4_7DirPage19set_right_fence_key
FN:164,_RNvMs_NtCsgKx49t2KK1I_5digby8dir_pageNtB4_7DirPage20clear_left_fence_key
FN:552,_RNvMs_NtCsgKx49t2KK1I_5digby8dir_pageNtB4_7DirPage20get_page_no_at_index
FN:318,_RNvMs_NtCsgKx49t2KK1I_5digby8dir_pageNtB4_7DirPage20update_child_page_no
FN:206,_RNvMs_NtCsgKx49t2KK1I_5digby8dir_pageNtB4_7DirPage21clear_right_fence_key
FN:306,_RNvMs_NtCsgKx49t2KK1I_5digby8dir_pageNtB4_7DirPage21shift_slots_left_from
FN:500,_RNvMs_NtCsgKx49t2KK1I_5digby8dir_pageNtB4_7DirPage22add_key_value_at_index
FN:294,_RNvMs_NtCsgKx49t2KK1I_5digby8dir_pageNtB4_7DirPage22shift_slots_right_from
FN:564,_RNvMs_NtCsgKx49t2KK1I_5digby8dir_pageNtB4_7DirPage23get_key_suffix_at_index
FN:169,_RNvMs_NtCsgKx49t2KK1I_5digby8dir_pageNtB4_7DirPage23get_left_fence_key_size
FN:493,_RNvMs_NtCsgKx49t2KK1I_5digby8dir_pageNtB4_7DirPage24calculate_entries_offset
FN:216,_RNvMs_NtCsgKx49t2KK1I_5digby8dir_pageNtB4_7DirPage24get_right_fence_key_size
FN:173,_RNvMs_NtCsgKx49t2KK1I_5digby8dir_pageNtB4_7DirPage25get_left_fence_key_offset
FN:865,_RNvMs_NtCsgKx49t2KK1I_5digby8dir_pageNtB4_7DirPage25remove_key_value_at_index
FN:388,_RNvMs_NtCsgKx49t2KK1I_5digby8dir_pageNtB4_7DirPage25reset_with_new_left_fence
FN:211,_RNvMs_NtCsgKx49t2KK1I_5digby8dir_pageNtB4_7DirPage26get_right_fence_key_offset
FN:355,_RNvMs_NtCsgKx49t2KK1I_5digby8dir_pageNtB4_7DirPage26reset_with_new_right_fence
FN:557,_RNvMs_NtCsgKx49t2KK1I_5digby8dir_pageNtB4_7DirPage33get_key_suffix_and_value_at_index
FN:66,_RNvMs_NtCsgKx49t2KK1I_5digby8dir_pageNtB4_7DirPage3new
FN:88,_RNvMs_NtCsgKx49t2KK1I_5digby8dir_pageNtB4_7DirPage5reset
FN:138,_RNvMs_NtCsgKx49t2KK1I_5digby8dir_pageNtB4_7DirPage8is_empty
FN:81,_RNvMs_NtCsgKx49t2KK1I_5digby8dir_pageNtB4_7DirPage9from_page
FN:29,_RNvXNtCsgKx49t2KK1I_5digby8dir_pageNtB2_7DirPageNtNtB4_4page9PageTrait11get_version
FN:33,_RNvXNtCsgKx49t2KK1I_5digby8dir_pageNtB2_7DirPageNtNtB4_4page9PageTrait11set_version
FN:13,_RNvXNtCsgKx49t2KK1I_5digby8dir_pageNtB2_7DirPageNtNtB4_4page9PageTrait14get_page_bytes
FN:17,_RNvXNtCsgKx49t2KK1I_5digby8dir_pageNtB2_7DirPageNtNtB4_4page9PageTrait15get_page_number
FN:21,_RNvXNtCsgKx49t2KK1I_5digby8dir_pageNtB2_7DirPageNtNtB4_4page9PageTrait15set_page_number
FN:25,_RNvXNtCsgKx49t2KK1I_5digby8dir_pageNtB2_7DirPageNtNtB4_4page9PageTrait8get_page
FNDA:321,_RNCNvMs_NtCskvx6Wg1ZZUs_5digby8dir_pageNtB6_7DirPage12split_page_20B8_
FNDA:32644,_RNCNvMs_NtCskvx6Wg1ZZUs_5digby8dir_pageNtB6_7DirPage12split_page_30B8_
FNDA:10401,_RNCNvMs_NtCskvx6Wg1ZZUs_5digby8dir_pageNtB6_7DirPage12split_page_40B8_
FNDA:8624,_RNCNvMs_NtCskvx6Wg1ZZUs_5digby8dir_pageNtB6_7DirPage12split_page_4s_0B8_
FNDA:4,_RNCNvMs_NtCskvx6Wg1ZZUs_5digby8dir_pageNtB6_7DirPage25reset_with_new_left_fence0B8_
FNDA:4,_RNCNvMs_NtCskvx6Wg1ZZUs_5digby8dir_pageNtB6_7DirPage26reset_with_new_right_fence0B8_
FNDA:0,_RNvXNtCskvx6Wg1ZZUs_5digby8dir_pageNtB2_7DirPageNtNtB4_4page9PageTrait14get_page_bytes
FNDA:1,_RNvNtNtCskvx6Wg1ZZUs_5digby8dir_page5testss_15test_create_new
FNDA:1,_RNvNtNtCskvx6Wg1ZZUs_5digby8dir_page5testss_15test_split_page
FNDA:1,_RNvNtNtCskvx6Wg1ZZUs_5digby8dir_page5testss_18test_get_next_page
FNDA:1,_RNvNtNtCskvx6Wg1ZZUs_5digby8dir_page5testss_19test_add_child_page
FNDA:1,_RNvNtNtCskvx6Wg1ZZUs_5digby8dir_page5testss_36test_add_child_page_reset_left_fence
FNDA:1,_RNvNtNtCskvx6Wg1ZZUs_5digby8dir_page5testss_37test_add_child_page_reset_right_fence
FNDA:18548,_RNvMs_NtCskvx6Wg1ZZUs_5digby8dir_pageNtB4_7DirPage10create_new
FNDA:9248,_RNvMs_NtCskvx6Wg1ZZUs_5digby8dir_pageNtB4_7DirPage10split_page
FNDA:37,_RNvMs_NtCskvx6Wg1ZZUs_5digby8dir_pageNtB4_7DirPage12split_page_1
FNDA:102,_RNvMs_NtCskvx6Wg1ZZUs_5digby8dir_pageNtB4_7DirPage12split_page_2
FNDA:4296,_RNvMs_NtCskvx6Wg1ZZUs_5digby8dir_pageNtB4_7DirPage12split_page_3
FNDA:4813,_RNvMs_NtCskvx6Wg1ZZUs_5digby8dir_pageNtB4_7DirPage12split_page_4
FNDA:104993422,_RNvMs_NtCskvx6Wg1ZZUs_5digby8dir_pageNtB4_7DirPage13get_next_page
FNDA:39614,_RNvMs_NtCskvx6Wg1ZZUs_5digby8dir_pageNtB4_7DirPage14add_child_page
FNDA:317723,_RNvMs_NtCskvx6Wg1ZZUs_5digby8dir_pageNtB4_7DirPage14get_free_space
FNDA:343264,_RNvMs_NtCskvx6Wg1ZZUs_5digby8dir_pageNtB4_7DirPage14get_key_prefix
FNDA:2,_RNvMs_NtCskvx6Wg1ZZUs_5digby8dir_pageNtB4_7DirPage14get_key_values
FNDA:58073,_RNvMs_NtCskvx6Wg1ZZUs_5digby8dir_pageNtB4_7DirPage14has_left_fence
FNDA:167937,_RNvMs_NtCskvx6Wg1ZZUs_5digby8dir_pageNtB4_7DirPage14set_free_space
FNDA:275617026,_RNvMs_NtCskvx6Wg1ZZUs_5digby8dir_pageNtB4_7DirPage15get_key_at_slot
FNDA:48861,_RNvMs_NtCskvx6Wg1ZZUs_5digby8dir_pageNtB4_7DirPage15has_right_fence
FNDA:29913,_RNvMs_NtCskvx6Wg1ZZUs_5digby8dir_pageNtB4_7DirPage15remove_key_page
FNDA:164237,_RNvMs_NtCskvx6Wg1ZZUs_5digby8dir_pageNtB4_7DirPage16get_dir_left_key
FNDA:505127018,_RNvMs_NtCskvx6Wg1ZZUs_5digby8dir_pageNtB4_7DirPage16get_entries_size
FNDA:169054,_RNvMs_NtCskvx6Wg1ZZUs_5digby8dir_pageNtB4_7DirPage16get_key_at_index
FNDA:30079832,_RNvMs_NtCskvx6Wg1ZZUs_5digby8dir_pageNtB4_7DirPage16get_page_to_left
FNDA:98311,_RNvMs_NtCskvx6Wg1ZZUs_5digby8dir_pageNtB4_7DirPage16set_entries_size
FNDA:133211,_RNvMs_NtCskvx6Wg1ZZUs_5digby8dir_pageNtB4_7DirPage16set_page_to_left
FNDA:48368283,_RNvMs_NtCskvx6Wg1ZZUs_5digby8dir_pageNtB4_7DirPage17get_index_for_key
FNDA:105794931,_RNvMs_NtCskvx6Wg1ZZUs_5digby8dir_pageNtB4_7DirPage17get_prefix_length
FNDA:350862842,_RNvMs_NtCskvx6Wg1ZZUs_5digby8dir_pageNtB4_7DirPage17get_slot_at_index
FNDA:75041550,_RNvMs_NtCskvx6Wg1ZZUs_5digby8dir_pageNtB4_7DirPage17get_value_at_slot
FNDA:32653,_RNvMs_NtCskvx6Wg1ZZUs_5digby8dir_pageNtB4_7DirPage17set_prefix_length
FNDA:59097,_RNvMs_NtCskvx6Wg1ZZUs_5digby8dir_pageNtB4_7DirPage17set_slot_at_index
FNDA:299248,_RNvMs_NtCskvx6Wg1ZZUs_5digby8dir_pageNtB4_7DirPage17store_child_pages
FNDA:111935,_RNvMs_NtCskvx6Wg1ZZUs_5digby8dir_pageNtB4_7DirPage18get_left_fence_key
FNDA:36910,_RNvMs_NtCskvx6Wg1ZZUs_5digby8dir_pageNtB4_7DirPage18set_left_fence_key
FNDA:39,_RNvMs_NtCskvx6Wg1ZZUs_5digby8dir_pageNtB4_7DirPage19get_all_child_pages
FNDA:24,_RNvMs_NtCskvx6Wg1ZZUs_5digby8dir_pageNtB4_7DirPage19get_page_no_for_key
FNDA:200452,_RNvMs_NtCskvx6Wg1ZZUs_5digby8dir_pageNtB4_7DirPage19get_right_fence_key
FNDA:32716,_RNvMs_NtCskvx6Wg1ZZUs_5digby8dir_pageNtB4_7DirPage19set_right_fence_key
FNDA:2,_RNvMs_NtCskvx6Wg1ZZUs_5digby8dir_pageNtB4_7DirPage20clear_left_fence_key
FNDA:75002936,_RNvMs_NtCskvx6Wg1ZZUs_5digby8dir_pageNtB4_7DirPage20get_page_no_at_index
FNDA:299248,_RNvMs_NtCskvx6Wg1ZZUs_5digby8dir_pageNtB4_7DirPage20update_child_page_no
FNDA:2,_RNvMs_NtCskvx6Wg1ZZUs_5digby8dir_pageNtB4_7DirPage21clear_right_fence_key
FNDA:20664,_RNvMs_NtCskvx6Wg1ZZUs_5digby8dir_pageNtB4_7DirPage21shift_slots_left_from
FNDA:59097,_RNvMs_NtCskvx6Wg1ZZUs_5digby8dir_pageNtB4_7DirPage22add_key_value_at_index
FNDA:59097,_RNvMs_NtCskvx6Wg1ZZUs_5digby8dir_pageNtB4_7DirPage22shift_slots_right_from
FNDA:4435,_RNvMs_NtCskvx6Wg1ZZUs_5digby8dir_pageNtB4_7DirPage23get_key_suffix_at_index
FNDA:111935,_RNvMs_NtCskvx6Wg1ZZUs_5digby8dir_pageNtB4_7DirPage23get_left_fence_key_size
FNDA:128723,_RNvMs_NtCskvx6Wg1ZZUs_5digby8dir_pageNtB4_7DirPage24calculate_entries_offset
FNDA:233105,_RNvMs_NtCskvx6Wg1ZZUs_5digby8dir_pageNtB4_7DirPage24get_right_fence_key_size
FNDA:111935,_RNvMs_NtCskvx6Wg1ZZUs_5digby8dir_pageNtB4_7DirPage25get_left_fence_key_offset
FNDA:20664,_RNvMs_NtCskvx6Wg1ZZUs_5digby8dir_pageNtB4_7DirPage25remove_key_value_at_index
FNDA:1,_RNvMs_NtCskvx6Wg1ZZUs_5digby8dir_pageNtB4_7DirPage25reset_with_new_left_fence
FNDA:200452,_RNvMs_NtCskvx6Wg1ZZUs_5digby8dir_pageNtB4_7DirPage26get_right_fence_key_offset
FNDA:1,_RNvMs_NtCskvx6Wg1ZZUs_5digby8dir_pageNtB4_7DirPage26reset_with_new_right_fence
FNDA:28732,_RNvMs_NtCskvx6Wg1ZZUs_5digby8dir_pageNtB4_7DirPage33get_key_suffix_and_value_at_index
FNDA:18548,_RNvMs_NtCskvx6Wg1ZZUs_5digby8dir_pageNtB4_7DirPage3new
FNDA:2,_RNvMs_NtCskvx6Wg1ZZUs_5digby8dir_pageNtB4_7DirPage5reset
FNDA:29910,_RNvMs_NtCskvx6Wg1ZZUs_5digby8dir_pageNtB4_7DirPage8is_empty
FNDA:104993451,_RNvMs_NtCskvx6Wg1ZZUs_5digby8dir_pageNtB4_7DirPage9from_page
FNDA:1,_RNvXNtCskvx6Wg1ZZUs_5digby8dir_pageNtB2_7DirPageNtNtB4_4page9PageTrait11get_version
FNDA:338455,_RNvXNtCskvx6Wg1ZZUs_5digby8dir_pageNtB2_7DirPageNtNtB4_4page9PageTrait11set_version
FNDA:527259,_RNvXNtCskvx6Wg1ZZUs_5digby8dir_pageNtB2_7DirPageNtNtB4_4page9PageTrait15get_page_number
FNDA:319907,_RNvXNtCskvx6Wg1ZZUs_5digby8dir_pageNtB2_7DirPageNtNtB4_4page9PageTrait15set_page_number
FNDA:319907,_RNvXNtCskvx6Wg1ZZUs_5digby8dir_pageNtB2_7DirPageNtNtB4_4page9PageTrait8get_page
FNDA:0,_RNCNvMs_NtCsgKx49t2KK1I_5digby8dir_pageNtB6_7DirPage12split_page_20B8_
FNDA:0,_RNCNvMs_NtCsgKx49t2KK1I_5digby8dir_pageNtB6_7DirPage12split_page_30B8_
FNDA:0,_RNCNvMs_NtCsgKx49t2KK1I_5digby8dir_pageNtB6_7DirPage12split_page_40B8_
FNDA:0,_RNCNvMs_NtCsgKx49t2KK1I_5digby8dir_pageNtB6_7DirPage12split_page_4s_0B8_
FNDA:0,_RNCNvMs_NtCsgKx49t2KK1I_5digby8dir_pageNtB6_7DirPage25reset_with_new_left_fence0B8_
FNDA:0,_RNCNvMs_NtCsgKx49t2KK1I_5digby8dir_pageNtB6_7DirPage26reset_with_new_right_fence0B8_
FNDA:1,_RNvMs_NtCsgKx49t2KK1I_5digby8dir_pageNtB4_7DirPage10create_new
FNDA:0,_RNvMs_NtCsgKx49t2KK1I_5digby8dir_pageNtB4_7DirPage10split_page
FNDA:0,_RNvMs_NtCsgKx49t2KK1I_5digby8dir_pageNtB4_7DirPage12split_page_1
FNDA:0,_RNvMs_NtCsgKx49t2KK1I_5digby8dir_pageNtB4_7DirPage12split_page_2
FNDA:0,_RNvMs_NtCsgKx49t2KK1I_5digby8dir_pageNtB4_7DirPage12split_page_3
FNDA:0,_RNvMs_NtCsgKx49t2KK1I_5digby8dir_pageNtB4_7DirPage12split_page_4
FNDA:51,_RNvMs_NtCsgKx49t2KK1I_5digby8dir_pageNtB4_7DirPage13get_next_page
FNDA:3,_RNvMs_NtCsgKx49t2KK1I_5digby8dir_pageNtB4_7DirPage14add_child_page
FNDA:13,_RNvMs_NtCsgKx49t2KK1I_5digby8dir_pageNtB4_7DirPage14get_free_space
FNDA:22,_RNvMs_NtCsgKx49t2KK1I_5digby8dir_pageNtB4_7DirPage14get_key_prefix
FNDA:0,_RNvMs_NtCsgKx49t2KK1I_5digby8dir_pageNtB4_7DirPage14get_key_values
FNDA:3,_RNvMs_NtCsgKx49t2KK1I_5digby8dir_pageNtB4_7DirPage14has_left_fence
FNDA:6,_RNvMs_NtCsgKx49t2KK1I_5digby8dir_pageNtB4_7DirPage14set_free_space
FNDA:179,_RNvMs_NtCsgKx49t2KK1I_5digby8dir_pageNtB4_7DirPage15get_key_at_slot
FNDA:3,_RNvMs_NtCsgKx49t2KK1I_5digby8dir_pageNtB4_7DirPage15has_right_fence
FNDA:0,_RNvMs_NtCsgKx49t2KK1I_5digby8dir_pageNtB4_7DirPage15remove_key_page
FNDA:19,_RNvMs_NtCsgKx49t2KK1I_5digby8dir_pageNtB4_7DirPage16get_dir_left_key
FNDA:362,_RNvMs_NtCsgKx49t2KK1I_5digby8dir_pageNtB4_7DirPage16get_entries_size
FNDA:19,_RNvMs_NtCsgKx49t2KK1I_5digby8dir_pageNtB4_7DirPage16get_key_at_index
FNDA:19,_RNvMs_NtCsgKx49t2KK1I_5digby8dir_pageNtB4_7DirPage16get_page_to_left
FNDA:4,_RNvMs_NtCsgKx49t2KK1I_5digby8dir_pageNtB4_7DirPage16set_entries_size
FNDA:11,_RNvMs_NtCsgKx49t2KK1I_5digby8dir_pageNtB4_7DirPage16set_page_to_left
FNDA:33,_RNvMs_NtCsgKx49t2KK1I_5digby8dir_pageNtB4_7DirPage17get_index_for_key
FNDA:114,_RNvMs_NtCsgKx49t2KK1I_5digby8dir_pageNtB4_7DirPage17get_prefix_length
FNDA:225,_RNvMs_NtCsgKx49t2KK1I_5digby8dir_pageNtB4_7DirPage17get_slot_at_index
FNDA:37,_RNvMs_NtCsgKx49t2KK1I_5digby8dir_pageNtB4_7DirPage17get_value_at_slot
FNDA:1,_RNvMs_NtCsgKx49t2KK1I_5digby8dir_pageNtB4_7DirPage17set_prefix_length
FNDA:3,_RNvMs_NtCsgKx49t2KK1I_5digby8dir_pageNtB4_7DirPage17set_slot_at_index
FNDA:19,_RNvMs_NtCsgKx49t2KK1I_5digby8dir_pageNtB4_7DirPage17store_child_pages
FNDA:0,_RNvMs_NtCsgKx49t2KK1I_5digby8dir_pageNtB4_7DirPage18get_left_fence_key
FNDA:1,_RNvMs_NtCsgKx49t2KK1I_5digby8dir_pageNtB4_7DirPage18set_left_fence_key
FNDA:1,_RNvMs_NtCsgKx49t2KK1I_5digby8dir_pageNtB4_7DirPage19get_all_child_pages
FNDA:0,_RNvMs_NtCsgKx49t2KK1I_5digby8dir_pageNtB4_7DirPage19get_page_no_for_key
FNDA:19,_RNvMs_NtCsgKx49t2KK1I_5digby8dir_pageNtB4_7DirPage19get_right_fence_key
FNDA:1,_RNvMs_NtCsgKx49t2KK1I_5digby8dir_pageNtB4_7DirPage19set_right_fence_key
FNDA:0,_RNvMs_NtCsgKx49t2KK1I_5digby8dir_pageNtB4_7DirPage20clear_left_fence_key
FNDA:34,_RNvMs_NtCsgKx49t2KK1I_5digby8dir_pageNtB4_7DirPage20get_page_no_at_index
FNDA:19,_RNvMs_NtCsgKx49t2KK1I_5digby8dir_pageNtB4_7DirPage20update_child_page_no
FNDA:0,_RNvMs_NtCsgKx49t2KK1I_5digby8dir_pageNtB4_7DirPage21clear_right_fence_key
FNDA:0,_RNvMs_NtCsgKx49t2KK1I_5digby8dir_pageNtB4_7DirPage21shift_slots_left_from
FNDA:3,_RNvMs_NtCsgKx49t2KK1I_5digby8dir_pageNtB4_7DirPage22add_key_value_at_index
FNDA:3,_RNvMs_NtCsgKx49t2KK1I_5digby8dir_pageNtB4_7DirPage22shift_slots_right_from
FNDA:0,_RNvMs_NtCsgKx49t2KK1I_5digby8dir_pageNtB4_7DirPage23get_key_suffix_at_index
FNDA:0,_RNvMs_NtCsgKx49t2KK1I_5digby8dir_pageNtB4_7DirPage23get_left_fence_key_size
FNDA:5,_RNvMs_NtCsgKx49t2KK1I_5digby8dir_pageNtB4_7DirPage24calculate_entries_offset
FNDA:20,_RNvMs_NtCsgKx49t2KK1I_5digby8dir_pageNtB4_7DirPage24get_right_fence_key_size
FNDA:0,_RNvMs_NtCsgKx49t2KK1I_5digby8dir_pageNtB4_7DirPage25get_left_fence_key_offset
FNDA:0,_RNvMs_NtCsgKx49t2KK1I_5digby8dir_pageNtB4_7DirPage25remove_key_value_at_index
FNDA:0,_RNvMs_NtCsgKx49t2KK1I_5digby8dir_pageNtB4_7DirPage25reset_with_new_left_fence
FNDA:19,_RNvMs_NtCsgKx49t2KK1I_5digby8dir_pageNtB4_7DirPage26get_right_fence_key_offset
FNDA:0,_RNvMs_NtCsgKx49t2KK1I_5digby8dir_pageNtB4_7DirPage26reset_with_new_right_fence
FNDA:0,_RNvMs_NtCsgKx49t2KK1I_5digby8dir_pageNtB4_7DirPage33get_key_suffix_and_value_at_index
FNDA:1,_RNvMs_NtCsgKx49t2KK1I_5digby8dir_pageNtB4_7DirPage3new
FNDA:0,_RNvMs_NtCsgKx49t2KK1I_5digby8dir_pageNtB4_7DirPage5reset
FNDA:0,_RNvMs_NtCsgKx49t2KK1I_5digby8dir_pageNtB4_7DirPage8is_empty
FNDA:52,_RNvMs_NtCsgKx49t2KK1I_5digby8dir_pageNtB4_7DirPage9from_page
FNDA:0,_RNvXNtCsgKx49t2KK1I_5digby8dir_pageNtB2_7DirPageNtNtB4_4page9PageTrait11get_version
FNDA:20,_RNvXNtCsgKx49t2KK1I_5digby8dir_pageNtB2_7DirPageNtNtB4_4page9PageTrait11set_version
FNDA:0,_RNvXNtCsgKx49t2KK1I_5digby8dir_pageNtB2_7DirPageNtNtB4_4page9PageTrait14get_page_bytes
FNDA:39,_RNvXNtCsgKx49t2KK1I_5digby8dir_pageNtB2_7DirPageNtNtB4_4page9PageTrait15get_page_number
FNDA:19,_RNvXNtCsgKx49t2KK1I_5digby8dir_pageNtB2_7DirPageNtNtB4_4page9PageTrait15set_page_number
FNDA:19,_RNvXNtCsgKx49t2KK1I_5digby8dir_pageNtB2_7DirPageNtNtB4_4page9PageTrait8get_page
FNF:74
FNH:73
DA:13,0
DA:14,0
DA:15,0
DA:17,527298
DA:18,527298
DA:19,527298
DA:21,319926
DA:22,319926
DA:23,319926
DA:25,319926
DA:26,319926
DA:27,319926
DA:29,1
DA:30,1
DA:31,1
DA:33,338475
DA:34,338475
DA:35,338475
DA:57,18549
DA:58,18549
DA:59,18549
DA:60,18549
DA:61,18549
DA:62,18549
DA:64,18549
DA:66,18549
DA:67,18549
DA:68,18549
DA:69,18549
DA:70,18549
DA:71,18549
DA:72,18549
DA:73,18549
DA:74,18549
DA:75,18549
DA:76,18549
DA:77,18549
DA:78,18549
DA:79,18549
DA:81,104993503
DA:82,104993503
DA:83,0
DA:84,104993503
DA:85,104993503
DA:86,104993503
DA:88,2
DA:89,2
DA:90,2
DA:91,2
DA:92,2
DA:93,2
DA:94,2
DA:96,505127380
DA:97,505127380
DA:98,505127380
DA:99,505127380
DA:101,98315
DA:102,98315
DA:103,98315
DA:104,98315
DA:106,317736
DA:107,317736
DA:108,317736
DA:109,317736
DA:111,167943
DA:112,167943
DA:113,167943
DA:114,167943
DA:116,105795045
DA:117,105795045
DA:118,105795045
DA:120,30079851
DA:121,30079851
DA:122,30079851
DA:123,30079851
DA:125,133222
DA:126,133222
DA:127,133222
DA:128,133222
DA:131,164256
DA:132,164256
DA:133,0
DA:134,164256
DA:135,164256
DA:136,164256
DA:138,29910
DA:139,29910
DA:140,29910
DA:142,36911
DA:143,36911
DA:144,36911
DA:145,0
DA:147,36911
DA:148,36911
DA:149,0
DA:151,36911
DA:152,36911
DA:153,36911
DA:154,36911
DA:155,36911
DA:156,36911
DA:157,36911
DA:158,36911
DA:160,58076
DA:161,58076
DA:162,58076
DA:164,2
DA:165,2
DA:166,2
DA:167,2
DA:169,111935
DA:170,111935
DA:171,111935
DA:173,111935
DA:174,111935
DA:175,111935
DA:176,111935
DA:178,111935
DA:179,111935
DA:180,111935
DA:181,111935
DA:182,111935
DA:184,32717
DA:185,32717
DA:186,32717
DA:187,0
DA:189,32717
DA:190,32717
DA:191,0
DA:193,32717
DA:194,32717
DA:195,32717
DA:196,32717
DA:197,32717
DA:198,32717
DA:199,32717
DA:200,32717
DA:202,48864
DA:203,48864
DA:204,48864
DA:206,2
DA:207,2
DA:208,2
DA:209,2
DA:211,200471
DA:212,200471
DA:213,200471
DA:214,200471
DA:216,233125
DA:217,233125
DA:218,233125
DA:220,200471
DA:221,200471
DA:222,200471
DA:223,200471
DA:224,200471
DA:226,32654
DA:227,32654
DA:228,32654
DA:229,0
DA:231,32654
DA:232,32654
DA:233,0
DA:235,32654
DA:236,32654
DA:238,350863067
DA:239,350863067
DA:240,350863067
DA:241,350863067
DA:242,350863067
DA:243,350863067
DA:244,350863067
DA:245,350863067
DA:247,59100
DA:248,59100
DA:249,59100
DA:250,59100
DA:251,59100
DA:252,59100
DA:254,75041587
DA:255,75041587
DA:256,75041587
DA:257,75041587
DA:259,275617205
DA:260,275617205
DA:261,275617205
DA:262,275617205
DA:264,343286
DA:265,343286
DA:266,343286
DA:267,279261
DA:268,64025
DA:269,64025
DA:270,343286
DA:272,48368316
DA:273,48368316
DA:276,48368316
DA:277,48368316
DA:279,128746928
DA:280,95226310
DA:281,95226310
DA:282,95226310
DA:284,95226310
DA:285,44854822
DA:286,14847698
DA:287,35523790
DA:291,33520618
DA:292,48368316
DA:294,59100
DA:295,59100
DA:296,59100
DA:297,49539
DA:298,9561
DA:299,9561
DA:300,9561
DA:301,9561
DA:302,9561
DA:304,59100
DA:306,20664
DA:307,20664
DA:308,20664
DA:309,20664
DA:310,20664
DA:311,20664
DA:313,20664
DA:318,299267
DA:319,299267
DA:320,299267
DA:321,299267
DA:322,0
DA:324,299267
DA:325,299267
DA:326,0
DA:328,299267
DA:330,299267
DA:332,299267
DA:333,16623
DA:334,16623
DA:335,282644
DA:338,282644
DA:339,282644
DA:341,60554
DA:342,60554
DA:343,222090
DA:346,222090
DA:347,222090
DA:348,222090
DA:349,222090
DA:350,222090
DA:351,222090
DA:352,222090
DA:353,299267
DA:355,1
DA:357,1
DA:358,1
DA:359,1
DA:360,1
DA:362,1
DA:363,1
DA:364,1
DA:365,4
DA:366,1
DA:368,0
DA:371,1
DA:372,1
DA:373,1
DA:374,1
DA:375,1
DA:376,3
DA:377,2
DA:378,2
DA:381,0
DA:382,0
DA:383,2
DA:385,1
DA:386,1
DA:388,1
DA:391,1
DA:392,1
DA:394,1
DA:395,1
DA:397,1
DA:398,1
DA:399,1
DA:400,4
DA:401,1
DA:403,0
DA:406,1
DA:407,1
DA:408,1
DA:409,1
DA:410,1
DA:411,3
DA:412,2
DA:413,2
DA:416,0
DA:417,0
DA:418,2
DA:420,1
DA:421,1
DA:423,39617
DA:424,39617
DA:425,1
DA:428,0
DA:429,1
DA:431,1
DA:432,39616
DA:434,39616
DA:435,1
DA:438,0
DA:439,1
DA:441,1
DA:442,39615
DA:444,39615
DA:445,39615
DA:446,39615
DA:447,0
DA:449,39615
DA:450,39615
DA:451,0
DA:453,39615
DA:455,39615
DA:456,39615
DA:457,39615
DA:458,39615
DA:460,39615
DA:461,9247
DA:462,30368
DA:464,30368
DA:465,30368
DA:466,30368
DA:467,0
DA:469,30368
DA:470,30368
DA:471,39617
DA:473,299267
DA:476,299267
DA:477,259694
DA:478,259694
DA:479,39573
DA:482,39573
DA:483,39573
DA:484,39579
DA:485,39579
DA:486,9247
DA:487,9247
DA:488,30332
DA:490,30326
DA:491,299267
DA:493,128728
DA:494,128728
DA:495,128728
DA:496,128728
DA:497,128728
DA:498,128728
DA:500,59100
DA:502,59100
DA:503,59100
DA:504,59100
DA:505,59100
DA:508,59100
DA:509,59100
DA:510,59100
DA:513,59100
DA:514,59100
DA:515,59100
DA:516,59100
DA:517,59100
DA:520,59100
DA:521,59100
DA:522,59100
DA:523,59100
DA:524,59100
DA:525,59100
DA:528,59100
DA:529,59100
DA:530,59100
DA:532,24
DA:533,24
DA:534,24
DA:538,6
DA:539,0
DA:540,6
DA:541,6
DA:542,0
DA:543,6
DA:544,18
DA:545,24
DA:546,24
DA:547,0
DA:548,24
DA:549,24
DA:550,24
DA:552,75002970
DA:553,75002970
DA:554,75002970
DA:555,75002970
DA:557,28732
DA:558,28732
DA:559,28732
DA:560,28732
DA:561,28732
DA:562,28732
DA:564,4435
DA:565,4435
DA:566,4435
DA:567,4435
DA:569,169073
DA:570,169073
DA:571,169073
DA:572,169073
DA:573,169073
DA:575,169073
DA:576,169073
DA:577,169073
DA:578,169073
DA:579,169073
DA:581,2
DA:582,2
DA:583,4
DA:584,4
DA:585,4
DA:586,4
DA:587,4
DA:588,4
DA:589,2
DA:590,2
DA:592,37
DA:600,37
DA:601,37
DA:602,37
DA:603,37
DA:604,37
DA:605,37
DA:606,37
DA:608,37
DA:609,37
DA:610,37
DA:611,37
DA:612,37
DA:614,37
DA:617,37
DA:618,37
DA:622,37
DA:624,37
DA:627,37
DA:628,37
DA:629,197
DA:630,197
DA:631,197
DA:632,197
DA:633,197
DA:637,37
DA:638,37
DA:639,37
DA:640,174
DA:641,174
DA:642,174
DA:643,174
DA:645,37
DA:646,37
DA:648,102
DA:655,102
DA:656,102
DA:657,0
DA:659,102
DA:660,102
DA:661,102
DA:662,102
DA:663,102
DA:664,102
DA:665,102
DA:667,102
DA:668,102
DA:669,102
DA:670,102
DA:671,102
DA:673,102
DA:676,102
DA:677,102
DA:680,102
DA:681,102
DA:682,102
DA:683,218
DA:684,218
DA:685,218
DA:686,218
DA:687,218
DA:689,102
DA:690,102
DA:691,102
DA:692,102
DA:693,321
DA:694,102
DA:695,102
DA:696,102
DA:697,102
DA:698,102
DA:699,132
DA:700,132
DA:701,132
DA:702,132
DA:703,132
DA:705,102
DA:706,102
DA:708,4296
DA:713,4296
DA:714,4296
DA:715,0
DA:717,4296
DA:718,4296
DA:719,4296
DA:720,4296
DA:721,4296
DA:722,4296
DA:723,4296
DA:725,4296
DA:726,4296
DA:727,4296
DA:728,4296
DA:729,4296
DA:731,4296
DA:734,4296
DA:735,4296
DA:739,4296
DA:741,4296
DA:742,4296
DA:743,4296
DA:744,4296
DA:745,4296
DA:746,4296
DA:747,4296
DA:748,32644
DA:749,4296
DA:750,4296
DA:751,8760
DA:752,8760
DA:753,8760
DA:754,8760
DA:755,8760
DA:758,4296
DA:759,4296
DA:760,4660
DA:761,4660
DA:762,4660
DA:763,4660
DA:765,4296
DA:766,4296
DA:768,4813
DA:771,4813
DA:772,4813
DA:773,4813
DA:774,4813
DA:775,4813
DA:776,4813
DA:777,4813
DA:779,4813
DA:780,4813
DA:781,4813
DA:782,4813
DA:783,4813
DA:785,4813
DA:788,4813
DA:789,4813
DA:792,4813
DA:794,4813
DA:795,4813
DA:796,4813
DA:797,4813
DA:798,4813
DA:799,4813
DA:800,4813
DA:801,10401
DA:802,4813
DA:803,4813
DA:804,4813
DA:805,8971
DA:806,8971
DA:807,8971
DA:808,8971
DA:809,8971
DA:811,4813
DA:812,4813
DA:813,4813
DA:814,8624
DA:815,4813
DA:816,4813
DA:817,4813
DA:818,4813
DA:819,4813
DA:820,4813
DA:821,5620
DA:822,5620
DA:823,5620
DA:824,5620
DA:826,4813
DA:827,4813
DA:829,9248
DA:830,9248
DA:831,9248
DA:832,0
DA:839,9248
DA:843,37
DA:844,9211
DA:847,9211
DA:848,102
DA:849,9109
DA:852,9109
DA:853,4296
DA:854,4813
DA:857,4813
DA:858,9248
DA:865,20664
DA:866,20664
DA:867,20664
DA:868,20664
DA:869,20664
DA:871,20664
DA:872,20664
DA:873,20664
DA:874,20664
DA:875,20664
DA:878,20664
DA:879,20664
DA:885,20664
DA:888,14254
DA:889,14254
DA:890,14254
DA:891,6410
DA:894,6410
DA:895,6410
DA:896,6410
DA:897,6410
DA:901,6410
DA:902,9273
DA:903,9273
DA:904,9273
DA:905,9273
DA:906,8178
DA:907,8178
DA:908,8178
DA:909,8178
DA:910,8178
DA:911,8178
DA:912,9273
DA:916,6410
DA:917,6410
DA:918,20664
DA:920,104993473
DA:921,104993473
DA:922,104993473
DA:923,79990
DA:924,104913483
DA:926,104913483
DA:928,104913483
DA:929,104913483
DA:930,104913483
DA:931,29930702
DA:932,74982781
DA:934,74982781
DA:935,74982781
DA:936,74982781
DA:937,26877864
DA:938,48104917
DA:940,48104917
DA:941,48104917
DA:942,14790947
DA:944,33313970
DA:946,104993473
DA:948,29913
DA:949,29913
DA:952,29913
DA:953,9249
DA:954,9249
DA:955,9249
DA:956,20664
DA:958,20664
DA:961,20664
DA:962,9747
DA:963,9747
DA:964,9747
DA:966,9747
DA:967,9747
DA:968,9747
DA:969,10917
DA:972,10917
DA:973,10917
DA:974,9045
DA:975,9045
DA:977,1872
DA:978,1872
DA:980,29913
DA:982,40
DA:983,40
DA:984,40
DA:985,40
DA:986,40
DA:987,40
DA:988,40
DA:989,0
DA:990,40
DA:991,134
DA:992,134
DA:993,134
DA:994,134
DA:995,134
DA:996,134
DA:997,40
DA:998,40
DA:1006,1
DA:1007,1
DA:1008,1
DA:1009,1
DA:1010,1
DA:1011,1
DA:1012,1
DA:1013,1
DA:1014,1
DA:1015,1
DA:1016,1
DA:1017,1
DA:1019,1
DA:1022,1
DA:1023,1
DA:1024,1
DA:1025,1
DA:1026,1
DA:1027,1
DA:1028,1
DA:1029,1
DA:1030,1
DA:1031,1
DA:1032,1
DA:1033,1
DA:1034,1
DA:1035,1
DA:1036,1
DA:1037,1
DA:1038,1
DA:1039,1
DA:1040,1
DA:1041,1
DA:1042,1
DA:1043,1
DA:1044,1
DA:1045,1
DA:1048,1
DA:1049,1
DA:1050,1
DA:1051,1
DA:1052,1
DA:1053,1
DA:1054,1
DA:1055,1
DA:1056,1
DA:1057,1
DA:1058,1
DA:1059,1
DA:1060,1
DA:1061,1
DA:1062,1
DA:1063,1
DA:1064,1
DA:1065,1
DA:1066,1
DA:1067,1
DA:1068,1
DA:1069,1
DA:1070,1
DA:1071,1
DA:1072,1
DA:1073,1
DA:1074,1
DA:1075,1
DA:1076,1
DA:1077,1
DA:1080,1
DA:1081,1
DA:1082,1
DA:1083,1
DA:1084,1
DA:1085,1
DA:1086,1
DA:1087,1
DA:1088,1
DA:1089,1
DA:1090,1
DA:1091,1
DA:1092,1
DA:1093,1
DA:1094,1
DA:1095,1
DA:1096,1
DA:1097,1
DA:1098,1
DA:1099,1
DA:1100,1
DA:1101,1
DA:1102,1
DA:1103,1
DA:1104,1
DA:1105,1
DA:1106,1
DA:1107,1
DA:1108,1
DA:1109,1
DA:1110,1
DA:1113,1
DA:1114,1
DA:1115,1
DA:1116,1
DA:1117,1
DA:1118,1
DA:1121,1
DA:1124,1
DA:1125,1
DA:1126,1
DA:1127,1
DA:1128,1
DA:1129,1
DA:1130,1
DA:1131,1
DA:1132,1
DA:1133,1
DA:1134,1
DA:1135,1
DA:1137,1
DA:1138,1
DA:1139,1
DA:1140,1
DA:1141,1
DA:1142,1
DA:1143,1
DA:1144,1
DA:1145,1
DA:1146,1
DA:1148,1
DA:1149,1
DA:1151,1
DA:1152,1
DA:1154,1
DA:1155,1
DA:1156,1
DA:1159,1
DA:1160,1
DA:1161,1
DA:1162,1
DA:1163,1
DA:1164,1
DA:1165,21
DA:1166,20
DA:1167,20
DA:1168,20
DA:1169,1
DA:1170,1
DA:1171,1
DA:1172,10
DA:1173,9
DA:1174,9
DA:1176,10
DA:1177,9
DA:1178,9
DA:1180,1
BRF:0
BRH:0
LF:869
LH:838
end_of_record
SF:/workspaces/digby/src/file_layer.rs
FN:25,_RNvMNtCskvx6Wg1ZZUs_5digby10file_layerNtB2_9FileLayer14get_page_count
FN:29,_RNvMNtCskvx6Wg1ZZUs_5digby10file_layerNtB2_9FileLayer15append_new_page
FN:45,_RNvMNtCskvx6Wg1ZZUs_5digby10file_layerNtB2_9FileLayer18write_page_to_disk
FN:58,_RNvMNtCskvx6Wg1ZZUs_5digby10file_layerNtB2_9FileLayer19read_page_from_disk
FN:10,_RNvMNtCskvx6Wg1ZZUs_5digby10file_layerNtB2_9FileLayer3new
FN:76,_RNvMNtCskvx6Wg1ZZUs_5digby10file_layerNtB2_9FileLayer8sync_all
FN:80,_RNvMNtCskvx6Wg1ZZUs_5digby10file_layerNtB2_9FileLayer9sync_data
FN:94,_RNvNtNtCskvx6Wg1ZZUs_5digby10file_layer5testss_30test_file_layer_write_and_read
FN:25,_RNvMNtCsgKx49t2KK1I_5digby10file_layerNtB2_9FileLayer14get_page_count
FN:29,_RNvMNtCsgKx49t2KK1I_5digby10file_layerNtB2_9FileLayer15append_new_page
FN:45,_RNvMNtCsgKx49t2KK1I_5digby10file_layerNtB2_9FileLayer18write_page_to_disk
FN:58,_RNvMNtCsgKx49t2KK1I_5digby10file_layerNtB2_9FileLayer19read_page_from_disk
FN:10,_RNvMNtCsgKx49t2KK1I_5digby10file_layerNtB2_9FileLayer3new
FN:76,_RNvMNtCsgKx49t2KK1I_5digby10file_layerNtB2_9FileLayer8sync_all
FN:80,_RNvMNtCsgKx49t2KK1I_5digby10file_layerNtB2_9FileLayer9sync_data
FNDA:551577,_RNvMNtCskvx6Wg1ZZUs_5digby10file_layerNtB2_9FileLayer14get_page_count
FNDA:52493,_RNvMNtCskvx6Wg1ZZUs_5digby10file_layerNtB2_9FileLayer15append_new_page
FNDA:528243,_RNvMNtCskvx6Wg1ZZUs_5digby10file_layerNtB2_9FileLayer18write_page_to_disk
FNDA:155790598,_RNvMNtCskvx6Wg1ZZUs_5digby10file_layerNtB2_9FileLayer19read_page_from_disk
FNDA:52,_RNvMNtCskvx6Wg1ZZUs_5digby10file_layerNtB2_9FileLayer3new
FNDA:23370,_RNvMNtCskvx6Wg1ZZUs_5digby10file_layerNtB2_9FileLayer8sync_all
FNDA:118872,_RNvMNtCskvx6Wg1ZZUs_5digby10file_layerNtB2_9FileLayer9sync_data
FNDA:1,_RNvNtNtCskvx6Wg1ZZUs_5digby10file_layer5testss_30test_file_layer_write_and_read
FNDA:359,_RNvMNtCsgKx49t2KK1I_5digby10file_layerNtB2_9FileLayer14get_page_count
FNDA:210,_RNvMNtCsgKx49t2KK1I_5digby10file_layerNtB2_9FileLayer15append_new_page
FNDA:336,_RNvMNtCsgKx49t2KK1I_5digby10file_layerNtB2_9FileLayer18write_page_to_disk
FNDA:791,_RNvMNtCsgKx49t2KK1I_5digby10file_layerNtB2_9FileLayer19read_page_from_disk
FNDA:25,_RNvMNtCsgKx49t2KK1I_5digby10file_layerNtB2_9FileLayer3new
FNDA:48,_RNvMNtCsgKx49t2KK1I_5digby10file_layerNtB2_9FileLayer8sync_all
FNDA:126,_RNvMNtCsgKx49t2KK1I_5digby10file_layerNtB2_9FileLayer9sync_data
FNF:8
FNH:8
DA:10,77
DA:11,77
DA:12,77
DA:13,77
DA:14,77
DA:15,0
DA:17,77
DA:18,77
DA:19,77
DA:20,77
DA:21,77
DA:22,77
DA:23,77
DA:25,551936
DA:26,551936
DA:27,551936
DA:29,52703
DA:31,52703
DA:32,52703
DA:33,0
DA:35,52703
DA:36,52703
DA:37,52703
DA:38,52703
DA:39,52703
DA:40,52703
DA:41,52703
DA:42,52703
DA:43,52703
DA:45,528579
DA:48,528579
DA:49,528579
DA:50,528579
DA:51,528579
DA:52,528579
DA:53,528579
DA:54,528579
DA:55,528579
DA:56,528579
DA:58,155791389
DA:59,155791389
DA:60,155791389
DA:61,155791389
DA:62,155791389
DA:63,155791389
DA:66,155791389
DA:67,155791389
DA:68,155791389
DA:69,155791389
DA:70,155791389
DA:71,155791389
DA:72,155791389
DA:73,155791389
DA:74,155791389
DA:76,23418
DA:77,23418
DA:78,23418
DA:80,118998
DA:81,118998
DA:82,118998
DA:94,1
DA:95,1
DA:96,1
DA:97,1
DA:98,1
DA:99,1
DA:100,1
DA:101,1
DA:102,1
DA:103,1
DA:104,1
DA:105,1
DA:108,1
DA:109,1
DA:110,1
DA:113,1
DA:114,1
DA:115,1
DA:116,1
DA:119,1
DA:120,1
BRF:0
BRH:0
LF:81
LH:79
end_of_record
SF:/workspaces/digby/src/free_dir_page.rs
FN:42,_RNvMs_NtCskvx6Wg1ZZUs_5digby13free_dir_pageNtB4_11FreeDirPage10create_new
FN:70,_RNvMs_NtCskvx6Wg1ZZUs_5digby13free_dir_pageNtB4_11FreeDirPage11get_entries
FN:112,_RNvMs_NtCskvx6Wg1ZZUs_5digby13free_dir_pageNtB4_11FreeDirPage11is_full_for
FN:76,_RNvMs_NtCskvx6Wg1ZZUs_5digby13free_dir_pageNtB4_11FreeDirPage11set_entries
FN:104,_RNvMs_NtCskvx6Wg1ZZUs_5digby13free_dir_pageNtB4_11FreeDirPage12set_previous
FN:135,_RNvMs_NtCskvx6Wg1ZZUs_5digby13free_dir_pageNtB4_11FreeDirPage13add_free_page
FN:125,_RNvMs_NtCskvx6Wg1ZZUs_5digby13free_dir_pageNtB4_11FreeDirPage13get_free_page
FN:147,_RNvMs_NtCskvx6Wg1ZZUs_5digby13free_dir_pageNtB4_11FreeDirPage14add_free_pages
FN:121,_RNvMs_NtCskvx6Wg1ZZUs_5digby13free_dir_pageNtB4_11FreeDirPage14has_free_pages
FN:51,_RNvMs_NtCskvx6Wg1ZZUs_5digby13free_dir_pageNtB4_11FreeDirPage3new
FN:117,_RNvMs_NtCskvx6Wg1ZZUs_5digby13free_dir_pageNtB4_11FreeDirPage7is_full
FN:84,_RNvMs_NtCskvx6Wg1ZZUs_5digby13free_dir_pageNtB4_11FreeDirPage8get_next
FN:90,_RNvMs_NtCskvx6Wg1ZZUs_5digby13free_dir_pageNtB4_11FreeDirPage8set_next
FN:61,_RNvMs_NtCskvx6Wg1ZZUs_5digby13free_dir_pageNtB4_11FreeDirPage9from_page
FN:31,_RNvXNtCskvx6Wg1ZZUs_5digby13free_dir_pageNtB2_11FreeDirPageNtNtB4_4page9PageTrait11get_version
FN:35,_RNvXNtCskvx6Wg1ZZUs_5digby13free_dir_pageNtB2_11FreeDirPageNtNtB4_4page9PageTrait11set_version
FN:19,_RNvXNtCskvx6Wg1ZZUs_5digby13free_dir_pageNtB2_11FreeDirPageNtNtB4_4page9PageTrait15get_page_number
FN:23,_RNvXNtCskvx6Wg1ZZUs_5digby13free_dir_pageNtB2_11FreeDirPageNtNtB4_4page9PageTrait15set_page_number
FN:27,_RNvXNtCskvx6Wg1ZZUs_5digby13free_dir_pageNtB2_11FreeDirPageNtNtB4_4page9PageTrait8get_page
FN:170,_RNvNtNtCskvx6Wg1ZZUs_5digby13free_dir_page5testss_19test_adding_entries
FN:182,_RNvNtNtCskvx6Wg1ZZUs_5digby13free_dir_page5testss_23test_fill_free_page_dir
FN:98,_RNvMs_NtCskvx6Wg1ZZUs_5digby13free_dir_pageNtB4_11FreeDirPage12get_previous
FN:15,_RNvXNtCskvx6Wg1ZZUs_5digby13free_dir_pageNtB2_11FreeDirPageNtNtB4_4page9PageTrait14get_page_bytes
FN:42,_RNvMs_NtCsgKx49t2KK1I_5digby13free_dir_pageNtB4_11FreeDirPage10create_new
FN:70,_RNvMs_NtCsgKx49t2KK1I_5digby13free_dir_pageNtB4_11FreeDirPage11get_entries
FN:112,_RNvMs_NtCsgKx49t2KK1I_5digby13free_dir_pageNtB4_11FreeDirPage11is_full_for
FN:76,_RNvMs_NtCsgKx49t2KK1I_5digby13free_dir_pageNtB4_11FreeDirPage11set_entries
FN:98,_RNvMs_NtCsgKx49t2KK1I_5digby13free_dir_pageNtB4_11FreeDirPage12get_previous
FN:104,_RNvMs_NtCsgKx49t2KK1I_5digby13free_dir_pageNtB4_11FreeDirPage12set_previous
FN:135,_RNvMs_NtCsgKx49t2KK1I_5digby13free_dir_pageNtB4_11FreeDirPage13add_free_page
FN:125,_RNvMs_NtCsgKx49t2KK1I_5digby13free_dir_pageNtB4_11FreeDirPage13get_free_page
FN:147,_RNvMs_NtCsgKx49t2KK1I_5digby13free_dir_pageNtB4_11FreeDirPage14add_free_pages
FN:121,_RNvMs_NtCsgKx49t2KK1I_5digby13free_dir_pageNtB4_11FreeDirPage14has_free_pages
FN:51,_RNvMs_NtCsgKx49t2KK1I_5digby13free_dir_pageNtB4_11FreeDirPage3new
FN:117,_RNvMs_NtCsgKx49t2KK1I_5digby13free_dir_pageNtB4_11FreeDirPage7is_full
FN:84,_RNvMs_NtCsgKx49t2KK1I_5digby13free_dir_pageNtB4_11FreeDirPage8get_next
FN:90,_RNvMs_NtCsgKx49t2KK1I_5digby13free_dir_pageNtB4_11FreeDirPage8set_next
FN:61,_RNvMs_NtCsgKx49t2KK1I_5digby13free_dir_pageNtB4_11FreeDirPage9from_page
FN:31,_RNvXNtCsgKx49t2KK1I_5digby13free_dir_pageNtB2_11FreeDirPageNtNtB4_4page9PageTrait11get_version
FN:35,_RNvXNtCsgKx49t2KK1I_5digby13free_dir_pageNtB2_11FreeDirPageNtNtB4_4page9PageTrait11set_version
FN:15,_RNvXNtCsgKx49t2KK1I_5digby13free_dir_pageNtB2_11FreeDirPageNtNtB4_4page9PageTrait14get_page_bytes
FN:19,_RNvXNtCsgKx49t2KK1I_5digby13free_dir_pageNtB2_11FreeDirPageNtNtB4_4page9PageTrait15get_page_number
FN:23,_RNvXNtCsgKx49t2KK1I_5digby13free_dir_pageNtB2_11FreeDirPageNtNtB4_4page9PageTrait15set_page_number
FN:27,_RNvXNtCsgKx49t2KK1I_5digby13free_dir_pageNtB2_11FreeDirPageNtNtB4_4page9PageTrait8get_page
FNDA:19174,_RNvMs_NtCskvx6Wg1ZZUs_5digby13free_dir_pageNtB4_11FreeDirPage10create_new
FNDA:3248904,_RNvMs_NtCskvx6Wg1ZZUs_5digby13free_dir_pageNtB4_11FreeDirPage11get_entries
FNDA:939974,_RNvMs_NtCskvx6Wg1ZZUs_5digby13free_dir_pageNtB4_11FreeDirPage11is_full_for
FNDA:915020,_RNvMs_NtCskvx6Wg1ZZUs_5digby13free_dir_pageNtB4_11FreeDirPage11set_entries
FNDA:19156,_RNvMs_NtCskvx6Wg1ZZUs_5digby13free_dir_pageNtB4_11FreeDirPage12set_previous
FNDA:453327,_RNvMs_NtCskvx6Wg1ZZUs_5digby13free_dir_pageNtB4_11FreeDirPage13add_free_page
FNDA:457535,_RNvMs_NtCskvx6Wg1ZZUs_5digby13free_dir_pageNtB4_11FreeDirPage13get_free_page
FNDA:4158,_RNvMs_NtCskvx6Wg1ZZUs_5digby13free_dir_pageNtB4_11FreeDirPage14add_free_pages
FNDA:936424,_RNvMs_NtCskvx6Wg1ZZUs_5digby13free_dir_pageNtB4_11FreeDirPage14has_free_pages
FNDA:19176,_RNvMs_NtCskvx6Wg1ZZUs_5digby13free_dir_pageNtB4_11FreeDirPage3new
FNDA:935816,_RNvMs_NtCskvx6Wg1ZZUs_5digby13free_dir_pageNtB4_11FreeDirPage7is_full
FNDA:21354,_RNvMs_NtCskvx6Wg1ZZUs_5digby13free_dir_pageNtB4_11FreeDirPage8get_next
FNDA:19156,_RNvMs_NtCskvx6Wg1ZZUs_5digby13free_dir_pageNtB4_11FreeDirPage8set_next
FNDA:86860,_RNvMs_NtCskvx6Wg1ZZUs_5digby13free_dir_pageNtB4_11FreeDirPage9from_page
FNDA:69651,_RNvXNtCskvx6Wg1ZZUs_5digby13free_dir_pageNtB2_11FreeDirPageNtNtB4_4page9PageTrait11get_version
FNDA:69620,_RNvXNtCskvx6Wg1ZZUs_5digby13free_dir_pageNtB2_11FreeDirPageNtNtB4_4page9PageTrait11set_version
FNDA:194759,_RNvXNtCskvx6Wg1ZZUs_5digby13free_dir_pageNtB2_11FreeDirPageNtNtB4_4page9PageTrait15get_page_number
FNDA:69620,_RNvXNtCskvx6Wg1ZZUs_5digby13free_dir_pageNtB2_11FreeDirPageNtNtB4_4page9PageTrait15set_page_number
FNDA:88794,_RNvXNtCskvx6Wg1ZZUs_5digby13free_dir_pageNtB2_11FreeDirPageNtNtB4_4page9PageTrait8get_page
FNDA:1,_RNvNtNtCskvx6Wg1ZZUs_5digby13free_dir_page5testss_19test_adding_entries
FNDA:1,_RNvNtNtCskvx6Wg1ZZUs_5digby13free_dir_page5testss_23test_fill_free_page_dir
FNDA:0,_RNvMs_NtCskvx6Wg1ZZUs_5digby13free_dir_pageNtB4_11FreeDirPage12get_previous
FNDA:0,_RNvXNtCskvx6Wg1ZZUs_5digby13free_dir_pageNtB2_11FreeDirPageNtNtB4_4page9PageTrait14get_page_bytes
FNDA:13,_RNvMs_NtCsgKx49t2KK1I_5digby13free_dir_pageNtB4_11FreeDirPage10create_new
FNDA:1489,_RNvMs_NtCsgKx49t2KK1I_5digby13free_dir_pageNtB4_11FreeDirPage11get_entries
FNDA:431,_RNvMs_NtCsgKx49t2KK1I_5digby13free_dir_pageNtB4_11FreeDirPage11is_full_for
FNDA:425,_RNvMs_NtCsgKx49t2KK1I_5digby13free_dir_pageNtB4_11FreeDirPage11set_entries
FNDA:0,_RNvMs_NtCsgKx49t2KK1I_5digby13free_dir_pageNtB4_11FreeDirPage12get_previous
FNDA:0,_RNvMs_NtCsgKx49t2KK1I_5digby13free_dir_pageNtB4_11FreeDirPage12set_previous
FNDA:204,_RNvMs_NtCsgKx49t2KK1I_5digby13free_dir_pageNtB4_11FreeDirPage13add_free_page
FNDA:198,_RNvMs_NtCsgKx49t2KK1I_5digby13free_dir_pageNtB4_11FreeDirPage13get_free_page
FNDA:23,_RNvMs_NtCsgKx49t2KK1I_5digby13free_dir_pageNtB4_11FreeDirPage14add_free_pages
FNDA:406,_RNvMs_NtCsgKx49t2KK1I_5digby13free_dir_pageNtB4_11FreeDirPage14has_free_pages
FNDA:13,_RNvMs_NtCsgKx49t2KK1I_5digby13free_dir_pageNtB4_11FreeDirPage3new
FNDA:408,_RNvMs_NtCsgKx49t2KK1I_5digby13free_dir_pageNtB4_11FreeDirPage7is_full
FNDA:10,_RNvMs_NtCsgKx49t2KK1I_5digby13free_dir_pageNtB4_11FreeDirPage8get_next
FNDA:0,_RNvMs_NtCsgKx49t2KK1I_5digby13free_dir_pageNtB4_11FreeDirPage8set_next
FNDA:64,_RNvMs_NtCsgKx49t2KK1I_5digby13free_dir_pageNtB4_11FreeDirPage9from_page
FNDA:64,_RNvXNtCsgKx49t2KK1I_5digby13free_dir_pageNtB2_11FreeDirPageNtNtB4_4page9PageTrait11get_version
FNDA:50,_RNvXNtCsgKx49t2KK1I_5digby13free_dir_pageNtB2_11FreeDirPageNtNtB4_4page9PageTrait11set_version
FNDA:0,_RNvXNtCsgKx49t2KK1I_5digby13free_dir_pageNtB2_11FreeDirPageNtNtB4_4page9PageTrait14get_page_bytes
FNDA:100,_RNvXNtCsgKx49t2KK1I_5digby13free_dir_pageNtB2_11FreeDirPageNtNtB4_4page9PageTrait15get_page_number
FNDA:50,_RNvXNtCsgKx49t2KK1I_5digby13free_dir_pageNtB2_11FreeDirPageNtNtB4_4page9PageTrait15set_page_number
FNDA:63,_RNvXNtCsgKx49t2KK1I_5digby13free_dir_pageNtB2_11FreeDirPageNtNtB4_4page9PageTrait8get_page
FNF:23
FNH:21
DA:15,0
DA:16,0
DA:17,0
DA:19,194859
DA:20,194859
DA:21,194859
DA:23,69670
DA:24,69670
DA:25,69670
DA:27,88857
DA:28,88857
DA:29,88857
DA:31,69715
DA:32,69715
DA:33,69715
DA:35,69670
DA:36,69670
DA:37,69670
DA:42,19187
DA:43,19187
DA:44,19187
DA:45,19187
DA:46,19187
DA:47,19187
DA:49,19187
DA:51,19189
DA:52,19189
DA:53,19189
DA:54,19189
DA:55,19189
DA:56,19189
DA:57,19189
DA:58,19189
DA:59,19189
DA:61,86924
DA:62,86924
DA:63,86924
DA:64,0
DA:65,86924
DA:67,86924
DA:68,86924
DA:70,3250393
DA:71,3250393
DA:72,3250393
DA:73,3250393
DA:74,3250393
DA:76,915445
DA:77,915445
DA:78,915445
DA:79,915445
DA:80,915445
DA:81,915445
DA:82,915445
DA:84,21364
DA:85,21364
DA:86,21364
DA:87,21364
DA:88,21364
DA:90,19156
DA:91,19156
DA:92,19156
DA:93,19156
DA:94,19156
DA:95,19156
DA:96,19156
DA:98,0
DA:99,0
DA:100,0
DA:101,0
DA:102,0
DA:104,19156
DA:105,19156
DA:106,19156
DA:107,19156
DA:108,19156
DA:109,19156
DA:110,19156
DA:112,940405
DA:113,940405
DA:114,940405
DA:115,940405
DA:117,936224
DA:118,936224
DA:119,936224
DA:121,936830
DA:122,936830
DA:123,936830
DA:125,457733
DA:126,457733
DA:127,457733
DA:128,457733
DA:129,457733
DA:130,457733
DA:131,457733
DA:132,457733
DA:133,457733
DA:135,453531
DA:136,453531
DA:137,453531
DA:138,453531
DA:139,453531
DA:140,453531
DA:141,453531
DA:142,453531
DA:143,453531
DA:144,453531
DA:145,453531
DA:147,4181
DA:148,4181
DA:149,4181
DA:150,4181
DA:151,4181
DA:152,4181
DA:153,4181
DA:154,33373
DA:155,29192
DA:156,29192
DA:157,29192
DA:158,29192
DA:159,29192
DA:160,29192
DA:161,4181
DA:162,4181
DA:170,1
DA:171,1
DA:172,1
DA:173,1
DA:174,1
DA:175,1
DA:176,1
DA:177,1
DA:178,1
DA:179,1
DA:182,1
DA:183,1
DA:184,1
DA:185,1021
DA:186,1020
DA:187,507
DA:188,507
DA:189,513
DA:191,1
DA:192,1
DA:193,1
DA:194,1
DA:195,1
BRF:0
BRH:0
LF:146
LH:137
end_of_record
SF:/workspaces/digby/src/free_page.rs
FN:64,_RNvNtNtCskvx6Wg1ZZUs_5digby9free_page5testss_15test_create_new
FN:77,_RNvNtNtCskvx6Wg1ZZUs_5digby9free_page5testss_20test_from_page_valid
FN:88,_RNvNtNtCskvx6Wg1ZZUs_5digby9free_page5testss_22test_from_page_invalid
FN:96,_RNvNtNtCskvx6Wg1ZZUs_5digby9free_page5testss_23test_page_trait_methods
FN:36,_RNvMs_NtCskvx6Wg1ZZUs_5digby9free_pageNtB4_8FreePage10create_new
FN:40,_RNvMs_NtCskvx6Wg1ZZUs_5digby9free_pageNtB4_8FreePage3new
FN:49,_RNvMs_NtCskvx6Wg1ZZUs_5digby9free_pageNtB4_8FreePage9from_page
FN:26,_RNvXNtCskvx6Wg1ZZUs_5digby9free_pageNtB2_8FreePageNtNtB4_4page9PageTrait11get_version
FN:30,_RNvXNtCskvx6Wg1ZZUs_5digby9free_pageNtB2_8FreePageNtNtB4_4page9PageTrait11set_version
FN:10,_RNvXNtCskvx6Wg1ZZUs_5digby9free_pageNtB2_8FreePageNtNtB4_4page9PageTrait14get_page_bytes
FN:14,_RNvXNtCskvx6Wg1ZZUs_5digby9free_pageNtB2_8FreePageNtNtB4_4page9PageTrait15get_page_number
FN:18,_RNvXNtCskvx6Wg1ZZUs_5digby9free_pageNtB2_8FreePageNtNtB4_4page9PageTrait15set_page_number
FN:22,_RNvXNtCskvx6Wg1ZZUs_5digby9free_pageNtB2_8FreePageNtNtB4_4page9PageTrait8get_page
FNDA:1,_RNvNtNtCskvx6Wg1ZZUs_5digby9free_page5testss_15test_create_new
FNDA:1,_RNvNtNtCskvx6Wg1ZZUs_5digby9free_page5testss_20test_from_page_valid
FNDA:1,_RNvNtNtCskvx6Wg1ZZUs_5digby9free_page5testss_22test_from_page_invalid
FNDA:1,_RNvNtNtCskvx6Wg1ZZUs_5digby9free_page5testss_23test_page_trait_methods
FNDA:2,_RNvMs_NtCskvx6Wg1ZZUs_5digby9free_pageNtB4_8FreePage10create_new
FNDA:2,_RNvMs_NtCskvx6Wg1ZZUs_5digby9free_pageNtB4_8FreePage3new
FNDA:2,_RNvMs_NtCskvx6Wg1ZZUs_5digby9free_pageNtB4_8FreePage9from_page
FNDA:1,_RNvXNtCskvx6Wg1ZZUs_5digby9free_pageNtB2_8FreePageNtNtB4_4page9PageTrait11get_version
FNDA:1,_RNvXNtCskvx6Wg1ZZUs_5digby9free_pageNtB2_8FreePageNtNtB4_4page9PageTrait11set_version
FNDA:1,_RNvXNtCskvx6Wg1ZZUs_5digby9free_pageNtB2_8FreePageNtNtB4_4page9PageTrait14get_page_bytes
FNDA:4,_RNvXNtCskvx6Wg1ZZUs_5digby9free_pageNtB2_8FreePageNtNtB4_4page9PageTrait15get_page_number
FNDA:1,_RNvXNtCskvx6Wg1ZZUs_5digby9free_pageNtB2_8FreePageNtNtB4_4page9PageTrait15set_page_number
FNDA:1,_RNvXNtCskvx6Wg1ZZUs_5digby9free_pageNtB2_8FreePageNtNtB4_4page9PageTrait8get_page
FNF:13
FNH:13
DA:10,1
DA:11,1
DA:12,1
DA:14,4
DA:15,4
DA:16,4
DA:18,1
DA:19,1
DA:20,1
DA:22,1
DA:23,1
DA:24,1
DA:26,1
DA:27,1
DA:28,1
DA:30,1
DA:31,1
DA:32,1
DA:36,2
DA:37,2
DA:38,2
DA:40,2
DA:41,2
DA:42,2
DA:43,2
DA:44,2
DA:45,2
DA:46,2
DA:47,2
DA:49,2
DA:50,2
DA:51,1
DA:52,1
DA:54,1
DA:55,1
DA:64,1
DA:65,1
DA:66,1
DA:67,1
DA:68,1
DA:69,1
DA:71,1
DA:74,1
DA:77,1
DA:78,1
DA:79,1
DA:80,1
DA:82,1
DA:83,1
DA:84,1
DA:88,1
DA:89,1
DA:90,1
DA:92,1
DA:93,1
DA:96,1
DA:97,1
DA:98,1
DA:99,1
DA:100,1
DA:101,1
DA:103,1
DA:104,1
DA:106,1
DA:107,1
DA:108,1
DA:110,1
DA:111,1
DA:113,1
DA:114,1
DA:115,1
BRF:0
BRH:0
LF:71
LH:71
end_of_record
SF:/workspaces/digby/src/free_page_tracker.rs
FN:51,_RNvMNtCskvx6Wg1ZZUs_5digby17free_page_trackerNtB2_15FreePageTracker13get_free_page
FN:90,_RNvMNtCskvx6Wg1ZZUs_5digby17free_page_trackerNtB2_15FreePageTracker16get_return_pages
FN:107,_RNvMNtCskvx6Wg1ZZUs_5digby17free_page_trackerNtB2_15FreePageTracker18get_free_dir_pages
FN:96,_RNvMNtCskvx6Wg1ZZUs_5digby17free_page_trackerNtB2_15FreePageTracker19return_free_page_no
FN:36,_RNvMNtCskvx6Wg1ZZUs_5digby17free_page_trackerNtB2_15FreePageTracker3new
FN:158,_RNvNtNtCskvx6Wg1ZZUs_5digby17free_page_tracker5testss_21test_add_remove_pages
FN:51,_RNvMNtCsgKx49t2KK1I_5digby17free_page_trackerNtB2_15FreePageTracker13get_free_page
FN:90,_RNvMNtCsgKx49t2KK1I_5digby17free_page_trackerNtB2_15FreePageTracker16get_return_pages
FN:107,_RNvMNtCsgKx49t2KK1I_5digby17free_page_trackerNtB2_15FreePageTracker18get_free_dir_pages
FN:96,_RNvMNtCsgKx49t2KK1I_5digby17free_page_trackerNtB2_15FreePageTracker19return_free_page_no
FN:36,_RNvMNtCsgKx49t2KK1I_5digby17free_page_trackerNtB2_15FreePageTracker3new
FNDA:478886,_RNvMNtCskvx6Wg1ZZUs_5digby17free_page_trackerNtB2_15FreePageTracker13get_free_page
FNDA:1,_RNvMNtCskvx6Wg1ZZUs_5digby17free_page_trackerNtB2_15FreePageTracker16get_return_pages
FNDA:69620,_RNvMNtCskvx6Wg1ZZUs_5digby17free_page_trackerNtB2_15FreePageTracker18get_free_dir_pages
FNDA:394644,_RNvMNtCskvx6Wg1ZZUs_5digby17free_page_trackerNtB2_15FreePageTracker19return_free_page_no
FNDA:69624,_RNvMNtCskvx6Wg1ZZUs_5digby17free_page_trackerNtB2_15FreePageTracker3new
FNDA:1,_RNvNtNtCskvx6Wg1ZZUs_5digby17free_page_tracker5testss_21test_add_remove_pages
FNDA:208,_RNvMNtCsgKx49t2KK1I_5digby17free_page_trackerNtB2_15FreePageTracker13get_free_page
FNDA:0,_RNvMNtCsgKx49t2KK1I_5digby17free_page_trackerNtB2_15FreePageTracker16get_return_pages
FNDA:50,_RNvMNtCsgKx49t2KK1I_5digby17free_page_trackerNtB2_15FreePageTracker18get_free_dir_pages
FNDA:154,_RNvMNtCsgKx49t2KK1I_5digby17free_page_trackerNtB2_15FreePageTracker19return_free_page_no
FNDA:52,_RNvMNtCsgKx49t2KK1I_5digby17free_page_trackerNtB2_15FreePageTracker3new
FNF:6
FNH:6
DA:36,69676
DA:37,69676
DA:38,69676
DA:39,69676
DA:40,69676
DA:41,69676
DA:42,69676
DA:43,69676
DA:44,69676
DA:45,69676
DA:51,479094
DA:52,479094
DA:54,479094
DA:57,479094
DA:58,457730
DA:59,21364
DA:63,21364
DA:64,21364
DA:68,17208
DA:69,17208
DA:70,17208
DA:71,17208
DA:75,17208
DA:76,4156
DA:81,4156
DA:83,4156
DA:85,4156
DA:86,4156
DA:87,4156
DA:88,479094
DA:90,1
DA:91,1
DA:92,1
DA:96,394798
DA:97,394798
DA:98,394798
DA:99,394798
DA:107,69670
DA:108,69670
DA:110,69670
DA:111,69670
DA:113,69670
DA:114,69670
DA:115,69670
DA:118,456616
DA:119,415574
DA:120,28628
DA:121,386946
DA:122,386946
DA:127,88826
DA:130,19156
DA:131,19156
DA:132,19156
DA:133,19156
DA:134,19156
DA:135,85232
DA:136,66097
DA:137,21
DA:138,66076
DA:139,66076
DA:141,19156
DA:142,19156
DA:145,69670
DA:148,69670
DA:149,69670
DA:150,69670
DA:158,1
DA:159,1
DA:160,1
DA:161,1
DA:162,1
DA:163,1
DA:164,1
DA:165,1
DA:167,1
DA:168,1
DA:169,1
DA:170,1
DA:171,1
DA:172,1
DA:174,1
DA:175,1
DA:176,1
DA:177,1
DA:179,1
DA:180,1
DA:181,1
DA:182,1
DA:185,1
DA:186,1
DA:187,1
DA:189,4986
DA:190,4985
DA:191,4985
DA:192,1
DA:193,1
DA:194,1
DA:195,1
DA:197,1
DA:198,11
DA:199,10
DA:200,10
DA:202,1
DA:203,1
DA:204,1
DA:205,1
DA:209,2101
DA:210,2100
DA:211,2100
DA:212,1
DA:214,1
DA:215,1
DA:216,1
BRF:0
BRH:0
LF:113
LH:113
end_of_record
SF:/workspaces/digby/src/leaf_page.rs
FN:1030,_RNCNvNtNtCskvx6Wg1ZZUs_5digby9leaf_page5testss_10test_split0B7_
FN:1439,_RNvNtNtCskvx6Wg1ZZUs_5digby9leaf_page5testss_10test_reset
FN:1012,_RNvNtNtCskvx6Wg1ZZUs_5digby9leaf_page5testss_10test_split
FN:1252,_RNvNtNtCskvx6Wg1ZZUs_5digby9leaf_page5testss_20test_overwrite_tuple
FN:1475,_RNvNtNtCskvx6Wg1ZZUs_5digby9leaf_page5testss_20test_reset_no_prefix
FN:1135,_RNvNtNtCskvx6Wg1ZZUs_5digby9leaf_page5testss_22test_multi_length_keys
FN:996,_RNvNtNtCskvx6Wg1ZZUs_5digby9leaf_page5testss_22test_tail_compression1
FN:1004,_RNvNtNtCskvx6Wg1ZZUs_5digby9leaf_page5testss_22test_tail_compression2
FN:1158,_RNvNtNtCskvx6Wg1ZZUs_5digby9leaf_page5testss_25test_add_and_remove_tuple
FN:1510,_RNvNtNtCskvx6Wg1ZZUs_5digby9leaf_page5testss_28test_reset_to_small_to_reset
FN:1548,_RNvNtNtCskvx6Wg1ZZUs_5digby9leaf_page5testss_44test_reset_to_small_after_reset_to_add_tuple
FN:32,_RNvXNtCskvx6Wg1ZZUs_5digby9leaf_pageNtB2_8LeafPageNtNtB4_4page9PageTrait11get_version
FN:16,_RNvXNtCskvx6Wg1ZZUs_5digby9leaf_pageNtB2_8LeafPageNtNtB4_4page9PageTrait14get_page_bytes
FN:73,_RNvMs_NtCskvx6Wg1ZZUs_5digby9leaf_pageNtB4_8LeafPage10create_new
FN:904,_RNvMs_NtCskvx6Wg1ZZUs_5digby9leaf_pageNtB4_8LeafPage10delete_key
FN:858,_RNvMs_NtCskvx6Wg1ZZUs_5digby9leaf_pageNtB4_8LeafPage10split_page
FN:249,_RNvMs_NtCskvx6Wg1ZZUs_5digby9leaf_pageNtB4_8LeafPage12get_left_key
FN:593,_RNvMs_NtCskvx6Wg1ZZUs_5digby9leaf_pageNtB4_8LeafPage12split_page_1
FN:643,_RNvMs_NtCskvx6Wg1ZZUs_5digby9leaf_pageNtB4_8LeafPage12split_page_2
FN:698,_RNvMs_NtCskvx6Wg1ZZUs_5digby9leaf_pageNtB4_8LeafPage12split_page_3
FN:753,_RNvMs_NtCskvx6Wg1ZZUs_5digby9leaf_pageNtB4_8LeafPage12split_page_4
FN:583,_RNvMs_NtCskvx6Wg1ZZUs_5digby9leaf_pageNtB4_8LeafPage14get_all_tuples
FN:125,_RNvMs_NtCskvx6Wg1ZZUs_5digby9leaf_pageNtB4_8LeafPage14get_free_space
FN:345,_RNvMs_NtCskvx6Wg1ZZUs_5digby9leaf_pageNtB4_8LeafPage14get_key_prefix
FN:225,_RNvMs_NtCskvx6Wg1ZZUs_5digby9leaf_pageNtB4_8LeafPage14has_left_fence
FN:130,_RNvMs_NtCskvx6Wg1ZZUs_5digby9leaf_pageNtB4_8LeafPage14set_free_space
FN:340,_RNvMs_NtCskvx6Wg1ZZUs_5digby9leaf_pageNtB4_8LeafPage15get_key_at_slot
FN:274,_RNvMs_NtCskvx6Wg1ZZUs_5digby9leaf_pageNtB4_8LeafPage15has_right_fence
FN:111,_RNvMs_NtCskvx6Wg1ZZUs_5digby9leaf_pageNtB4_8LeafPage16get_entries_size
FN:573,_RNvMs_NtCskvx6Wg1ZZUs_5digby9leaf_pageNtB4_8LeafPage16get_key_at_index
FN:120,_RNvMs_NtCskvx6Wg1ZZUs_5digby9leaf_pageNtB4_8LeafPage16set_entries_size
FN:814,_RNvMs_NtCskvx6Wg1ZZUs_5digby9leaf_pageNtB4_8LeafPage16split_page_small
FN:353,_RNvMs_NtCskvx6Wg1ZZUs_5digby9leaf_pageNtB4_8LeafPage17get_index_for_key
FN:135,_RNvMs_NtCskvx6Wg1ZZUs_5digby9leaf_pageNtB4_8LeafPage17get_prefix_length
FN:310,_RNvMs_NtCskvx6Wg1ZZUs_5digby9leaf_pageNtB4_8LeafPage17get_slot_at_index
FN:335,_RNvMs_NtCskvx6Wg1ZZUs_5digby9leaf_pageNtB4_8LeafPage17get_value_at_slot
FN:298,_RNvMs_NtCskvx6Wg1ZZUs_5digby9leaf_pageNtB4_8LeafPage17set_prefix_length
FN:325,_RNvMs_NtCskvx6Wg1ZZUs_5digby9leaf_pageNtB4_8LeafPage17set_slot_at_index
FN:889,_RNvMs_NtCskvx6Wg1ZZUs_5digby9leaf_pageNtB4_8LeafPage17tail_compress_key
FN:243,_RNvMs_NtCskvx6Wg1ZZUs_5digby9leaf_pageNtB4_8LeafPage18get_left_fence_key
FN:544,_RNvMs_NtCskvx6Wg1ZZUs_5digby9leaf_pageNtB4_8LeafPage18get_tuple_at_index
FN:207,_RNvMs_NtCskvx6Wg1ZZUs_5digby9leaf_pageNtB4_8LeafPage18set_left_fence_key
FN:292,_RNvMs_NtCskvx6Wg1ZZUs_5digby9leaf_pageNtB4_8LeafPage19get_right_fence_key
FN:256,_RNvMs_NtCskvx6Wg1ZZUs_5digby9leaf_pageNtB4_8LeafPage19set_right_fence_key
FN:238,_RNvMs_NtCskvx6Wg1ZZUs_5digby9leaf_pageNtB4_8LeafPage20clear_left_fence_key
FN:283,_RNvMs_NtCskvx6Wg1ZZUs_5digby9leaf_pageNtB4_8LeafPage21clear_right_fence_key
FN:387,_RNvMs_NtCskvx6Wg1ZZUs_5digby9leaf_pageNtB4_8LeafPage21shift_slots_left_from
FN:490,_RNvMs_NtCskvx6Wg1ZZUs_5digby9leaf_pageNtB4_8LeafPage22add_key_value_at_index
FN:375,_RNvMs_NtCskvx6Wg1ZZUs_5digby9leaf_pageNtB4_8LeafPage22shift_slots_right_from
FN:568,_RNvMs_NtCskvx6Wg1ZZUs_5digby9leaf_pageNtB4_8LeafPage23get_key_suffix_at_index
FN:229,_RNvMs_NtCskvx6Wg1ZZUs_5digby9leaf_pageNtB4_8LeafPage23get_left_fence_key_size
FN:483,_RNvMs_NtCskvx6Wg1ZZUs_5digby9leaf_pageNtB4_8LeafPage24calculate_entries_offset
FN:288,_RNvMs_NtCskvx6Wg1ZZUs_5digby9leaf_pageNtB4_8LeafPage24get_right_fence_key_size
FN:233,_RNvMs_NtCskvx6Wg1ZZUs_5digby9leaf_pageNtB4_8LeafPage25get_left_fence_key_offset
FN:934,_RNvMs_NtCskvx6Wg1ZZUs_5digby9leaf_pageNtB4_8LeafPage25remove_key_value_at_index
FN:173,_RNvMs_NtCskvx6Wg1ZZUs_5digby9leaf_pageNtB4_8LeafPage25reset_with_new_left_fence
FN:278,_RNvMs_NtCskvx6Wg1ZZUs_5digby9leaf_pageNtB4_8LeafPage26get_right_fence_key_offset
FN:139,_RNvMs_NtCskvx6Wg1ZZUs_5digby9leaf_pageNtB4_8LeafPage26reset_with_new_right_fence
FN:561,_RNvMs_NtCskvx6Wg1ZZUs_5digby9leaf_pageNtB4_8LeafPage33get_key_suffix_and_value_at_index
FN:82,_RNvMs_NtCskvx6Wg1ZZUs_5digby9leaf_pageNtB4_8LeafPage3new
FN:103,_RNvMs_NtCskvx6Wg1ZZUs_5digby9leaf_pageNtB4_8LeafPage5reset
FN:116,_RNvMs_NtCskvx6Wg1ZZUs_5digby9leaf_pageNtB4_8LeafPage8is_empty
FN:396,_RNvMs_NtCskvx6Wg1ZZUs_5digby9leaf_pageNtB4_8LeafPage9add_tuple
FN:96,_RNvMs_NtCskvx6Wg1ZZUs_5digby9leaf_pageNtB4_8LeafPage9from_page
FN:523,_RNvMs_NtCskvx6Wg1ZZUs_5digby9leaf_pageNtB4_8LeafPage9get_tuple
FN:36,_RNvXNtCskvx6Wg1ZZUs_5digby9leaf_pageNtB2_8LeafPageNtNtB4_4page9PageTrait11set_version
FN:20,_RNvXNtCskvx6Wg1ZZUs_5digby9leaf_pageNtB2_8LeafPageNtNtB4_4page9PageTrait15get_page_number
FN:24,_RNvXNtCskvx6Wg1ZZUs_5digby9leaf_pageNtB2_8LeafPageNtNtB4_4page9PageTrait15set_page_number
FN:28,_RNvXNtCskvx6Wg1ZZUs_5digby9leaf_pageNtB2_8LeafPageNtNtB4_4page9PageTrait8get_page
FN:687,_RNCNvMs_NtCskvx6Wg1ZZUs_5digby9leaf_pageNtB6_8LeafPage12split_page_20B8_
FN:731,_RNCNvMs_NtCskvx6Wg1ZZUs_5digby9leaf_pageNtB6_8LeafPage12split_page_30B8_
FN:784,_RNCNvMs_NtCskvx6Wg1ZZUs_5digby9leaf_pageNtB6_8LeafPage12split_page_40B8_
FN:802,_RNCNvMs_NtCskvx6Wg1ZZUs_5digby9leaf_pageNtB6_8LeafPage12split_page_4s_0B8_
FN:893,_RNCNvMs_NtCskvx6Wg1ZZUs_5digby9leaf_pageNtB6_8LeafPage17tail_compress_key0B8_
FN:184,_RNCNvMs_NtCskvx6Wg1ZZUs_5digby9leaf_pageNtB6_8LeafPage25reset_with_new_left_fence0B8_
FN:150,_RNCNvMs_NtCskvx6Wg1ZZUs_5digby9leaf_pageNtB6_8LeafPage26reset_with_new_right_fence0B8_
FN:73,_RNvMs_NtCsgKx49t2KK1I_5digby9leaf_pageNtB4_8LeafPage10create_new
FN:904,_RNvMs_NtCsgKx49t2KK1I_5digby9leaf_pageNtB4_8LeafPage10delete_key
FN:858,_RNvMs_NtCsgKx49t2KK1I_5digby9leaf_pageNtB4_8LeafPage10split_page
FN:249,_RNvMs_NtCsgKx49t2KK1I_5digby9leaf_pageNtB4_8LeafPage12get_left_key
FN:593,_RNvMs_NtCsgKx49t2KK1I_5digby9leaf_pageNtB4_8LeafPage12split_page_1
FN:643,_RNvMs_NtCsgKx49t2KK1I_5digby9leaf_pageNtB4_8LeafPage12split_page_2
FN:698,_RNvMs_NtCsgKx49t2KK1I_5digby9leaf_pageNtB4_8LeafPage12split_page_3
FN:753,_RNvMs_NtCsgKx49t2KK1I_5digby9leaf_pageNtB4_8LeafPage12split_page_4
FN:583,_RNvMs_NtCsgKx49t2KK1I_5digby9leaf_pageNtB4_8LeafPage14get_all_tuples
FN:125,_RNvMs_NtCsgKx49t2KK1I_5digby9leaf_pageNtB4_8LeafPage14get_free_space
FN:345,_RNvMs_NtCsgKx49t2KK1I_5digby9leaf_pageNtB4_8LeafPage14get_key_prefix
FN:225,_RNvMs_NtCsgKx49t2KK1I_5digby9leaf_pageNtB4_8LeafPage14has_left_fence
FN:130,_RNvMs_NtCsgKx49t2KK1I_5digby9leaf_pageNtB4_8LeafPage14set_free_space
FN:340,_RNvMs_NtCsgKx49t2KK1I_5digby9leaf_pageNtB4_8LeafPage15get_key_at_slot
FN:274,_RNvMs_NtCsgKx49t2KK1I_5digby9leaf_pageNtB4_8LeafPage15has_right_fence
FN:111,_RNvMs_NtCsgKx49t2KK1I_5digby9leaf_pageNtB4_8LeafPage16get_entries_size
FN:573,_RNvMs_NtCsgKx49t2KK1I_5digby9leaf_pageNtB4_8LeafPage16get_key_at_index
FN:120,_RNvMs_NtCsgKx49t2KK1I_5digby9leaf_pageNtB4_8LeafPage16set_entries_size
FN:814,_RNvMs_NtCsgKx49t2KK1I_5digby9leaf_pageNtB4_8LeafPage16split_page_small
FN:353,_RNvMs_NtCsgKx49t2KK1I_5digby9leaf_pageNtB4_8LeafPage17get_index_for_key
FN:135,_RNvMs_NtCsgKx49t2KK1I_5digby9leaf_pageNtB4_8LeafPage17get_prefix_length
FN:310,_RNvMs_NtCsgKx49t2KK1I_5digby9leaf_pageNtB4_8LeafPage17get_slot_at_index
FN:335,_RNvMs_NtCsgKx49t2KK1I_5digby9leaf_pageNtB4_8LeafPage17get_value_at_slot
FN:298,_RNvMs_NtCsgKx49t2KK1I_5digby9leaf_pageNtB4_8LeafPage17set_prefix_length
FN:325,_RNvMs_NtCsgKx49t2KK1I_5digby9leaf_pageNtB4_8LeafPage17set_slot_at_index
FN:889,_RNvMs_NtCsgKx49t2KK1I_5digby9leaf_pageNtB4_8LeafPage17tail_compress_key
FN:243,_RNvMs_NtCsgKx49t2KK1I_5digby9leaf_pageNtB4_8LeafPage18get_left_fence_key
FN:544,_RNvMs_NtCsgKx49t2KK1I_5digby9leaf_pageNtB4_8LeafPage18get_tuple_at_index
FN:207,_RNvMs_NtCsgKx49t2KK1I_5digby9leaf_pageNtB4_8LeafPage18set_left_fence_key
FN:292,_RNvMs_NtCsgKx49t2KK1I_5digby9leaf_pageNtB4_8LeafPage19get_right_fence_key
FN:256,_RNvMs_NtCsgKx49t2KK1I_5digby9leaf_pageNtB4_8LeafPage19set_right_fence_key
FN:238,_RNvMs_NtCsgKx49t2KK1I_5digby9leaf_pageNtB4_8LeafPage20clear_left_fence_key
FN:283,_RNvMs_NtCsgKx49t2KK1I_5digby9leaf_pageNtB4_8LeafPage21clear_right_fence_key
FN:387,_RNvMs_NtCsgKx49t2KK1I_5digby9leaf_pageNtB4_8LeafPage21shift_slots_left_from
FN:490,_RNvMs_NtCsgKx49t2KK1I_5digby9leaf_pageNtB4_8LeafPage22add_key_value_at_index
FN:375,_RNvMs_NtCsgKx49t2KK1I_5digby9leaf_pageNtB4_8LeafPage22shift_slots_right_from
FN:568,_RNvMs_NtCsgKx49t2KK1I_5digby9leaf_pageNtB4_8LeafPage23get_key_suffix_at_index
FN:229,_RNvMs_NtCsgKx49t2KK1I_5digby9leaf_pageNtB4_8LeafPage23get_left_fence_key_size
FN:483,_RNvMs_NtCsgKx49t2KK1I_5digby9leaf_pageNtB4_8LeafPage24calculate_entries_offset
FN:288,_RNvMs_NtCsgKx49t2KK1I_5digby9leaf_pageNtB4_8LeafPage24get_right_fence_key_size
FN:233,_RNvMs_NtCsgKx49t2KK1I_5digby9leaf_pageNtB4_8LeafPage25get_left_fence_key_offset
FN:934,_RNvMs_NtCsgKx49t2KK1I_5digby9leaf_pageNtB4_8LeafPage25remove_key_value_at_index
FN:173,_RNvMs_NtCsgKx49t2KK1I_5digby9leaf_pageNtB4_8LeafPage25reset_with_new_left_fence
FN:278,_RNvMs_NtCsgKx49t2KK1I_5digby9leaf_pageNtB4_8LeafPage26get_right_fence_key_offset
FN:139,_RNvMs_NtCsgKx49t2KK1I_5digby9leaf_pageNtB4_8LeafPage26reset_with_new_right_fence
FN:561,_RNvMs_NtCsgKx49t2KK1I_5digby9leaf_pageNtB4_8LeafPage33get_key_suffix_and_value_at_index
FN:82,_RNvMs_NtCsgKx49t2KK1I_5digby9leaf_pageNtB4_8LeafPage3new
FN:103,_RNvMs_NtCsgKx49t2KK1I_5digby9leaf_pageNtB4_8LeafPage5reset
FN:116,_RNvMs_NtCsgKx49t2KK1I_5digby9leaf_pageNtB4_8LeafPage8is_empty
FN:396,_RNvMs_NtCsgKx49t2KK1I_5digby9leaf_pageNtB4_8LeafPage9add_tuple
FN:96,_RNvMs_NtCsgKx49t2KK1I_5digby9leaf_pageNtB4_8LeafPage9from_page
FN:523,_RNvMs_NtCsgKx49t2KK1I_5digby9leaf_pageNtB4_8LeafPage9get_tuple
FN:32,_RNvXNtCsgKx49t2KK1I_5digby9leaf_pageNtB2_8LeafPageNtNtB4_4page9PageTrait11get_version
FN:36,_RNvXNtCsgKx49t2KK1I_5digby9leaf_pageNtB2_8LeafPageNtNtB4_4page9PageTrait11set_version
FN:16,_RNvXNtCsgKx49t2KK1I_5digby9leaf_pageNtB2_8LeafPageNtNtB4_4page9PageTrait14get_page_bytes
FN:20,_RNvXNtCsgKx49t2KK1I_5digby9leaf_pageNtB2_8LeafPageNtNtB4_4page9PageTrait15get_page_number
FN:24,_RNvXNtCsgKx49t2KK1I_5digby9leaf_pageNtB2_8LeafPageNtNtB4_4page9PageTrait15set_page_number
FN:28,_RNvXNtCsgKx49t2KK1I_5digby9leaf_pageNtB2_8LeafPageNtNtB4_4page9PageTrait8get_page
FN:687,_RNCNvMs_NtCsgKx49t2KK1I_5digby9leaf_pageNtB6_8LeafPage12split_page_20B8_
FN:731,_RNCNvMs_NtCsgKx49t2KK1I_5digby9leaf_pageNtB6_8LeafPage12split_page_30B8_
FN:784,_RNCNvMs_NtCsgKx49t2KK1I_5digby9leaf_pageNtB6_8LeafPage12split_page_40B8_
FN:802,_RNCNvMs_NtCsgKx49t2KK1I_5digby9leaf_pageNtB6_8LeafPage12split_page_4s_0B8_
FN:893,_RNCNvMs_NtCsgKx49t2KK1I_5digby9leaf_pageNtB6_8LeafPage17tail_compress_key0B8_
FN:184,_RNCNvMs_NtCsgKx49t2KK1I_5digby9leaf_pageNtB6_8LeafPage25reset_with_new_left_fence0B8_
FN:150,_RNCNvMs_NtCsgKx49t2KK1I_5digby9leaf_pageNtB6_8LeafPage26reset_with_new_right_fence0B8_
FNDA:198,_RNCNvNtNtCskvx6Wg1ZZUs_5digby9leaf_page5testss_10test_split0B7_
FNDA:1,_RNvNtNtCskvx6Wg1ZZUs_5digby9leaf_page5testss_10test_reset
FNDA:1,_RNvNtNtCskvx6Wg1ZZUs_5digby9leaf_page5testss_10test_split
FNDA:1,_RNvNtNtCskvx6Wg1ZZUs_5digby9leaf_page5testss_20test_overwrite_tuple
FNDA:1,_RNvNtNtCskvx6Wg1ZZUs_5digby9leaf_page5testss_20test_reset_no_prefix
FNDA:1,_RNvNtNtCskvx6Wg1ZZUs_5digby9leaf_page5testss_22test_multi_length_keys
FNDA:1,_RNvNtNtCskvx6Wg1ZZUs_5digby9leaf_page5testss_22test_tail_compression1
FNDA:1,_RNvNtNtCskvx6Wg1ZZUs_5digby9leaf_page5testss_22test_tail_compression2
FNDA:1,_RNvNtNtCskvx6Wg1ZZUs_5digby9leaf_page5testss_25test_add_and_remove_tuple
FNDA:1,_RNvNtNtCskvx6Wg1ZZUs_5digby9leaf_page5testss_28test_reset_to_small_to_reset
FNDA:1,_RNvNtNtCskvx6Wg1ZZUs_5digby9leaf_page5testss_44test_reset_to_small_after_reset_to_add_tuple
FNDA:0,_RNvXNtCskvx6Wg1ZZUs_5digby9leaf_pageNtB2_8LeafPageNtNtB4_4page9PageTrait11get_version
FNDA:0,_RNvXNtCskvx6Wg1ZZUs_5digby9leaf_pageNtB2_8LeafPageNtNtB4_4page9PageTrait14get_page_bytes
FNDA:42233,_RNvMs_NtCskvx6Wg1ZZUs_5digby9leaf_pageNtB4_8LeafPage10create_new
FNDA:24592,_RNvMs_NtCskvx6Wg1ZZUs_5digby9leaf_pageNtB4_8LeafPage10delete_key
FNDA:21091,_RNvMs_NtCskvx6Wg1ZZUs_5digby9leaf_pageNtB4_8LeafPage10split_page
FNDA:44686,_RNvMs_NtCskvx6Wg1ZZUs_5digby9leaf_pageNtB4_8LeafPage12get_left_key
FNDA:11,_RNvMs_NtCskvx6Wg1ZZUs_5digby9leaf_pageNtB4_8LeafPage12split_page_1
FNDA:21,_RNvMs_NtCskvx6Wg1ZZUs_5digby9leaf_pageNtB4_8LeafPage12split_page_2
FNDA:9037,_RNvMs_NtCskvx6Wg1ZZUs_5digby9leaf_pageNtB4_8LeafPage12split_page_3
FNDA:2165,_RNvMs_NtCskvx6Wg1ZZUs_5digby9leaf_pageNtB4_8LeafPage12split_page_4
FNDA:239,_RNvMs_NtCskvx6Wg1ZZUs_5digby9leaf_pageNtB4_8LeafPage14get_all_tuples
FNDA:538839,_RNvMs_NtCskvx6Wg1ZZUs_5digby9leaf_pageNtB4_8LeafPage14get_free_space
FNDA:25366577,_RNvMs_NtCskvx6Wg1ZZUs_5digby9leaf_pageNtB4_8LeafPage14get_key_prefix
FNDA:118734,_RNvMs_NtCskvx6Wg1ZZUs_5digby9leaf_pageNtB4_8LeafPage14has_left_fence
FNDA:280903,_RNvMs_NtCskvx6Wg1ZZUs_5digby9leaf_pageNtB4_8LeafPage14set_free_space
FNDA:35040040,_RNvMs_NtCskvx6Wg1ZZUs_5digby9leaf_pageNtB4_8LeafPage15get_key_at_slot
FNDA:107515,_RNvMs_NtCskvx6Wg1ZZUs_5digby9leaf_pageNtB4_8LeafPage15has_right_fence
FNDA:52850269,_RNvMs_NtCskvx6Wg1ZZUs_5digby9leaf_pageNtB4_8LeafPage16get_entries_size
FNDA:51181,_RNvMs_NtCskvx6Wg1ZZUs_5digby9leaf_pageNtB4_8LeafPage16get_key_at_index
FNDA:205424,_RNvMs_NtCskvx6Wg1ZZUs_5digby9leaf_pageNtB4_8LeafPage16set_entries_size
FNDA:9857,_RNvMs_NtCskvx6Wg1ZZUs_5digby9leaf_pageNtB4_8LeafPage16split_page_small
FNDA:16952610,_RNvMs_NtCskvx6Wg1ZZUs_5digby9leaf_pageNtB4_8LeafPage17get_index_for_key
FNDA:42329245,_RNvMs_NtCskvx6Wg1ZZUs_5digby9leaf_pageNtB4_8LeafPage17get_prefix_length
FNDA:35064644,_RNvMs_NtCskvx6Wg1ZZUs_5digby9leaf_pageNtB4_8LeafPage17get_slot_at_index
FNDA:16940402,_RNvMs_NtCskvx6Wg1ZZUs_5digby9leaf_pageNtB4_8LeafPage17get_value_at_slot
FNDA:84588,_RNvMs_NtCskvx6Wg1ZZUs_5digby9leaf_pageNtB4_8LeafPage17set_prefix_length
FNDA:138490,_RNvMs_NtCskvx6Wg1ZZUs_5digby9leaf_pageNtB4_8LeafPage17set_slot_at_index
FNDA:11236,_RNvMs_NtCskvx6Wg1ZZUs_5digby9leaf_pageNtB4_8LeafPage17tail_compress_key
FNDA:17014788,_RNvMs_NtCskvx6Wg1ZZUs_5digby9leaf_pageNtB4_8LeafPage18get_left_fence_key
FNDA:16867120,_RNvMs_NtCskvx6Wg1ZZUs_5digby9leaf_pageNtB4_8LeafPage18get_tuple_at_index
FNDA:42247,_RNvMs_NtCskvx6Wg1ZZUs_5digby9leaf_pageNtB4_8LeafPage18set_left_fence_key
FNDA:8519350,_RNvMs_NtCskvx6Wg1ZZUs_5digby9leaf_pageNtB4_8LeafPage19get_right_fence_key
FNDA:33232,_RNvMs_NtCskvx6Wg1ZZUs_5digby9leaf_pageNtB4_8LeafPage19set_right_fence_key
FNDA:42339,_RNvMs_NtCskvx6Wg1ZZUs_5digby9leaf_pageNtB4_8LeafPage20clear_left_fence_key
FNDA:42339,_RNvMs_NtCskvx6Wg1ZZUs_5digby9leaf_pageNtB4_8LeafPage21clear_right_fence_key
FNDA:24595,_RNvMs_NtCskvx6Wg1ZZUs_5digby9leaf_pageNtB4_8LeafPage21shift_slots_left_from
FNDA:138490,_RNvMs_NtCskvx6Wg1ZZUs_5digby9leaf_pageNtB4_8LeafPage22add_key_value_at_index
FNDA:138490,_RNvMs_NtCskvx6Wg1ZZUs_5digby9leaf_pageNtB4_8LeafPage22shift_slots_right_from
FNDA:27175,_RNvMs_NtCskvx6Wg1ZZUs_5digby9leaf_pageNtB4_8LeafPage23get_key_suffix_at_index
FNDA:17014788,_RNvMs_NtCskvx6Wg1ZZUs_5digby9leaf_pageNtB4_8LeafPage23get_left_fence_key_size
FNDA:213969,_RNvMs_NtCskvx6Wg1ZZUs_5digby9leaf_pageNtB4_8LeafPage24calculate_entries_offset
FNDA:8603938,_RNvMs_NtCskvx6Wg1ZZUs_5digby9leaf_pageNtB4_8LeafPage24get_right_fence_key_size
FNDA:17014788,_RNvMs_NtCskvx6Wg1ZZUs_5digby9leaf_pageNtB4_8LeafPage25get_left_fence_key_offset
FNDA:24595,_RNvMs_NtCskvx6Wg1ZZUs_5digby9leaf_pageNtB4_8LeafPage25remove_key_value_at_index
FNDA:102,_RNvMs_NtCskvx6Wg1ZZUs_5digby9leaf_pageNtB4_8LeafPage25reset_with_new_left_fence
FNDA:8519350,_RNvMs_NtCskvx6Wg1ZZUs_5digby9leaf_pageNtB4_8LeafPage26get_right_fence_key_offset
FNDA:4,_RNvMs_NtCskvx6Wg1ZZUs_5digby9leaf_pageNtB4_8LeafPage26reset_with_new_right_fence
FNDA:73282,_RNvMs_NtCskvx6Wg1ZZUs_5digby9leaf_pageNtB4_8LeafPage33get_key_suffix_and_value_at_index
FNDA:42233,_RNvMs_NtCskvx6Wg1ZZUs_5digby9leaf_pageNtB4_8LeafPage3new
FNDA:106,_RNvMs_NtCskvx6Wg1ZZUs_5digby9leaf_pageNtB4_8LeafPage5reset
FNDA:45668,_RNvMs_NtCskvx6Wg1ZZUs_5digby9leaf_pageNtB4_8LeafPage8is_empty
FNDA:86417,_RNvMs_NtCskvx6Wg1ZZUs_5digby9leaf_pageNtB4_8LeafPage9add_tuple
FNDA:16916882,_RNvMs_NtCskvx6Wg1ZZUs_5digby9leaf_pageNtB4_8LeafPage9from_page
FNDA:16847215,_RNvMs_NtCskvx6Wg1ZZUs_5digby9leaf_pageNtB4_8LeafPage9get_tuple
FNDA:70035,_RNvXNtCskvx6Wg1ZZUs_5digby9leaf_pageNtB2_8LeafPageNtNtB4_4page9PageTrait11set_version
FNDA:156953,_RNvXNtCskvx6Wg1ZZUs_5digby9leaf_pageNtB2_8LeafPageNtNtB4_4page9PageTrait15get_page_number
FNDA:70035,_RNvXNtCskvx6Wg1ZZUs_5digby9leaf_pageNtB2_8LeafPageNtNtB4_4page9PageTrait15set_page_number
FNDA:70066,_RNvXNtCskvx6Wg1ZZUs_5digby9leaf_pageNtB2_8LeafPageNtNtB4_4page9PageTrait8get_page
FNDA:116,_RNCNvMs_NtCskvx6Wg1ZZUs_5digby9leaf_pageNtB6_8LeafPage12split_page_20B8_
FNDA:68356,_RNCNvMs_NtCskvx6Wg1ZZUs_5digby9leaf_pageNtB6_8LeafPage12split_page_30B8_
FNDA:17310,_RNCNvMs_NtCskvx6Wg1ZZUs_5digby9leaf_pageNtB6_8LeafPage12split_page_40B8_
FNDA:17186,_RNCNvMs_NtCskvx6Wg1ZZUs_5digby9leaf_pageNtB6_8LeafPage12split_page_4s_0B8_
FNDA:85919,_RNCNvMs_NtCskvx6Wg1ZZUs_5digby9leaf_pageNtB6_8LeafPage17tail_compress_key0B8_
FNDA:590,_RNCNvMs_NtCskvx6Wg1ZZUs_5digby9leaf_pageNtB6_8LeafPage25reset_with_new_left_fence0B8_
FNDA:21,_RNCNvMs_NtCskvx6Wg1ZZUs_5digby9leaf_pageNtB6_8LeafPage26reset_with_new_right_fence0B8_
FNDA:40,_RNvMs_NtCsgKx49t2KK1I_5digby9leaf_pageNtB4_8LeafPage10create_new
FNDA:6,_RNvMs_NtCsgKx49t2KK1I_5digby9leaf_pageNtB4_8LeafPage10delete_key
FNDA:3,_RNvMs_NtCsgKx49t2KK1I_5digby9leaf_pageNtB4_8LeafPage10split_page
FNDA:19,_RNvMs_NtCsgKx49t2KK1I_5digby9leaf_pageNtB4_8LeafPage12get_left_key
FNDA:1,_RNvMs_NtCsgKx49t2KK1I_5digby9leaf_pageNtB4_8LeafPage12split_page_1
FNDA:1,_RNvMs_NtCsgKx49t2KK1I_5digby9leaf_pageNtB4_8LeafPage12split_page_2
FNDA:1,_RNvMs_NtCsgKx49t2KK1I_5digby9leaf_pageNtB4_8LeafPage12split_page_3
FNDA:0,_RNvMs_NtCsgKx49t2KK1I_5digby9leaf_pageNtB4_8LeafPage12split_page_4
FNDA:6,_RNvMs_NtCsgKx49t2KK1I_5digby9leaf_pageNtB4_8LeafPage14get_all_tuples
FNDA:235,_RNvMs_NtCsgKx49t2KK1I_5digby9leaf_pageNtB4_8LeafPage14get_free_space
FNDA:154,_RNvMs_NtCsgKx49t2KK1I_5digby9leaf_pageNtB4_8LeafPage14get_key_prefix
FNDA:58,_RNvMs_NtCsgKx49t2KK1I_5digby9leaf_pageNtB4_8LeafPage14has_left_fence
FNDA:136,_RNvMs_NtCsgKx49t2KK1I_5digby9leaf_pageNtB4_8LeafPage14set_free_space
FNDA:421,_RNvMs_NtCsgKx49t2KK1I_5digby9leaf_pageNtB4_8LeafPage15get_key_at_slot
FNDA:56,_RNvMs_NtCsgKx49t2KK1I_5digby9leaf_pageNtB4_8LeafPage15has_right_fence
FNDA:956,_RNvMs_NtCsgKx49t2KK1I_5digby9leaf_pageNtB4_8LeafPage16get_entries_size
FNDA:19,_RNvMs_NtCsgKx49t2KK1I_5digby9leaf_pageNtB4_8LeafPage16get_key_at_index
FNDA:128,_RNvMs_NtCsgKx49t2KK1I_5digby9leaf_pageNtB4_8LeafPage16set_entries_size
FNDA:0,_RNvMs_NtCsgKx49t2KK1I_5digby9leaf_pageNtB4_8LeafPage16split_page_small
FNDA:172,_RNvMs_NtCsgKx49t2KK1I_5digby9leaf_pageNtB4_8LeafPage17get_index_for_key
FNDA:326,_RNvMs_NtCsgKx49t2KK1I_5digby9leaf_pageNtB4_8LeafPage17get_prefix_length
FNDA:431,_RNvMs_NtCsgKx49t2KK1I_5digby9leaf_pageNtB4_8LeafPage17get_slot_at_index
FNDA:150,_RNvMs_NtCsgKx49t2KK1I_5digby9leaf_pageNtB4_8LeafPage17get_value_at_slot
FNDA:43,_RNvMs_NtCsgKx49t2KK1I_5digby9leaf_pageNtB4_8LeafPage17set_prefix_length
FNDA:84,_RNvMs_NtCsgKx49t2KK1I_5digby9leaf_pageNtB4_8LeafPage17set_slot_at_index
FNDA:3,_RNvMs_NtCsgKx49t2KK1I_5digby9leaf_pageNtB4_8LeafPage17tail_compress_key
FNDA:80,_RNvMs_NtCsgKx49t2KK1I_5digby9leaf_pageNtB4_8LeafPage18get_left_fence_key
FNDA:110,_RNvMs_NtCsgKx49t2KK1I_5digby9leaf_pageNtB4_8LeafPage18get_tuple_at_index
FNDA:4,_RNvMs_NtCsgKx49t2KK1I_5digby9leaf_pageNtB4_8LeafPage18set_left_fence_key
FNDA:33,_RNvMs_NtCsgKx49t2KK1I_5digby9leaf_pageNtB4_8LeafPage19get_right_fence_key
FNDA:4,_RNvMs_NtCsgKx49t2KK1I_5digby9leaf_pageNtB4_8LeafPage19set_right_fence_key
FNDA:40,_RNvMs_NtCsgKx49t2KK1I_5digby9leaf_pageNtB4_8LeafPage20clear_left_fence_key
FNDA:40,_RNvMs_NtCsgKx49t2KK1I_5digby9leaf_pageNtB4_8LeafPage21clear_right_fence_key
FNDA:4,_RNvMs_NtCsgKx49t2KK1I_5digby9leaf_pageNtB4_8LeafPage21shift_slots_left_from
FNDA:84,_RNvMs_NtCsgKx49t2KK1I_5digby9leaf_pageNtB4_8LeafPage22add_key_value_at_index
FNDA:84,_RNvMs_NtCsgKx49t2KK1I_5digby9leaf_pageNtB4_8LeafPage22shift_slots_right_from
FNDA:7,_RNvMs_NtCsgKx49t2KK1I_5digby9leaf_pageNtB4_8LeafPage23get_key_suffix_at_index
FNDA:80,_RNvMs_NtCsgKx49t2KK1I_5digby9leaf_pageNtB4_8LeafPage23get_left_fence_key_size
FNDA:92,_RNvMs_NtCsgKx49t2KK1I_5digby9leaf_pageNtB4_8LeafPage24calculate_entries_offset
FNDA:76,_RNvMs_NtCsgKx49t2KK1I_5digby9leaf_pageNtB4_8LeafPage24get_right_fence_key_size
FNDA:80,_RNvMs_NtCsgKx49t2KK1I_5digby9leaf_pageNtB4_8LeafPage25get_left_fence_key_offset
FNDA:4,_RNvMs_NtCsgKx49t2KK1I_5digby9leaf_pageNtB4_8LeafPage25remove_key_value_at_index
FNDA:0,_RNvMs_NtCsgKx49t2KK1I_5digby9leaf_pageNtB4_8LeafPage25reset_with_new_left_fence
FNDA:33,_RNvMs_NtCsgKx49t2KK1I_5digby9leaf_pageNtB4_8LeafPage26get_right_fence_key_offset
FNDA:0,_RNvMs_NtCsgKx49t2KK1I_5digby9leaf_pageNtB4_8LeafPage26reset_with_new_right_fence
FNDA:40,_RNvMs_NtCsgKx49t2KK1I_5digby9leaf_pageNtB4_8LeafPage33get_key_suffix_and_value_at_index
FNDA:40,_RNvMs_NtCsgKx49t2KK1I_5digby9leaf_pageNtB4_8LeafPage3new
FNDA:0,_RNvMs_NtCsgKx49t2KK1I_5digby9leaf_pageNtB4_8LeafPage5reset
FNDA:3,_RNvMs_NtCsgKx49t2KK1I_5digby9leaf_pageNtB4_8LeafPage8is_empty
FNDA:53,_RNvMs_NtCsgKx49t2KK1I_5digby9leaf_pageNtB4_8LeafPage9add_tuple
FNDA:175,_RNvMs_NtCsgKx49t2KK1I_5digby9leaf_pageNtB4_8LeafPage9from_page
FNDA:113,_RNvMs_NtCsgKx49t2KK1I_5digby9leaf_pageNtB4_8LeafPage9get_tuple
FNDA:0,_RNvXNtCsgKx49t2KK1I_5digby9leaf_pageNtB2_8LeafPageNtNtB4_4page9PageTrait11get_version
FNDA:57,_RNvXNtCsgKx49t2KK1I_5digby9leaf_pageNtB2_8LeafPageNtNtB4_4page9PageTrait11set_version
FNDA:0,_RNvXNtCsgKx49t2KK1I_5digby9leaf_pageNtB2_8LeafPageNtNtB4_4page9PageTrait14get_page_bytes
FNDA:118,_RNvXNtCsgKx49t2KK1I_5digby9leaf_pageNtB2_8LeafPageNtNtB4_4page9PageTrait15get_page_number
FNDA:57,_RNvXNtCsgKx49t2KK1I_5digby9leaf_pageNtB2_8LeafPageNtNtB4_4page9PageTrait15set_page_number
FNDA:91,_RNvXNtCsgKx49t2KK1I_5digby9leaf_pageNtB2_8LeafPageNtNtB4_4page9PageTrait8get_page
FNDA:8,_RNCNvMs_NtCsgKx49t2KK1I_5digby9leaf_pageNtB6_8LeafPage12split_page_20B8_
FNDA:8,_RNCNvMs_NtCsgKx49t2KK1I_5digby9leaf_pageNtB6_8LeafPage12split_page_30B8_
FNDA:0,_RNCNvMs_NtCsgKx49t2KK1I_5digby9leaf_pageNtB6_8LeafPage12split_page_40B8_
FNDA:0,_RNCNvMs_NtCsgKx49t2KK1I_5digby9leaf_pageNtB6_8LeafPage12split_page_4s_0B8_
FNDA:24,_RNCNvMs_NtCsgKx49t2KK1I_5digby9leaf_pageNtB6_8LeafPage17tail_compress_key0B8_
FNDA:0,_RNCNvMs_NtCsgKx49t2KK1I_5digby9leaf_pageNtB6_8LeafPage25reset_with_new_left_fence0B8_
FNDA:0,_RNCNvMs_NtCsgKx49t2KK1I_5digby9leaf_pageNtB6_8LeafPage26reset_with_new_right_fence0B8_
FNF:76
FNH:74
DA:16,0
DA:17,0
DA:18,0
DA:20,157071
DA:21,157071
DA:22,157071
DA:24,70092
DA:25,70092
DA:26,70092
DA:28,70157
DA:29,70157
DA:30,70157
DA:32,0
DA:33,0
DA:34,0
DA:36,70092
DA:37,70092
DA:38,70092
DA:73,42273
DA:74,42273
DA:75,42273
DA:76,42273
DA:77,42273
DA:78,42273
DA:80,42273
DA:82,42273
DA:83,42273
DA:84,42273
DA:85,42273
DA:86,42273
DA:87,42273
DA:88,42273
DA:89,42273
DA:90,42273
DA:91,42273
DA:92,42273
DA:93,42273
DA:94,42273
DA:96,16917057
DA:97,16917057
DA:98,0
DA:99,16917057
DA:100,16917057
DA:101,16917057
DA:103,106
DA:104,106
DA:105,106
DA:106,106
DA:107,106
DA:108,106
DA:109,106
DA:111,52851225
DA:112,52851225
DA:113,52851225
DA:114,52851225
DA:116,45671
DA:117,45671
DA:118,45671
DA:120,205552
DA:121,205552
DA:122,205552
DA:123,205552
DA:125,539074
DA:126,539074
DA:127,539074
DA:128,539074
DA:130,281039
DA:131,281039
DA:132,281039
DA:133,281039
DA:135,42329571
DA:136,42329571
DA:137,42329571
DA:139,4
DA:141,4
DA:142,4
DA:143,4
DA:145,4
DA:147,3
DA:148,3
DA:149,3
DA:150,21
DA:151,3
DA:153,1
DA:156,4
DA:157,4
DA:158,4
DA:159,4
DA:160,4
DA:161,19
DA:162,16
DA:163,16
DA:166,1
DA:167,1
DA:168,15
DA:170,3
DA:171,4
DA:173,102
DA:175,102
DA:176,102
DA:177,102
DA:179,102
DA:181,76
DA:182,76
DA:183,76
DA:184,590
DA:185,76
DA:187,26
DA:190,102
DA:191,102
DA:192,102
DA:193,102
DA:194,102
DA:195,279
DA:196,177
DA:197,177
DA:200,0
DA:201,0
DA:202,177
DA:204,102
DA:205,102
DA:207,42251
DA:208,42251
DA:209,42251
DA:210,0
DA:212,42251
DA:213,42251
DA:214,0
DA:216,42251
DA:217,42251
DA:218,42251
DA:219,42251
DA:220,42251
DA:221,42251
DA:222,42251
DA:223,42251
DA:225,118792
DA:226,118792
DA:227,118792
DA:229,17014868
DA:230,17014868
DA:231,17014868
DA:233,17014868
DA:234,17014868
DA:235,17014868
DA:236,17014868
DA:238,42379
DA:239,42379
DA:240,42379
DA:241,42379
DA:243,17014868
DA:244,17014868
DA:245,17014868
DA:246,17014868
DA:247,17014868
DA:249,44705
DA:250,44705
DA:251,0
DA:252,44705
DA:253,44705
DA:254,44705
DA:256,33236
DA:257,33236
DA:258,33236
DA:259,0
DA:261,33236
DA:262,33236
DA:263,0
DA:265,33236
DA:266,33236
DA:267,33236
DA:268,33236
DA:269,33236
DA:270,33236
DA:271,33236
DA:272,33236
DA:274,107571
DA:275,107571
DA:276,107571
DA:278,8519383
DA:279,8519383
DA:280,8519383
DA:281,8519383
DA:283,42379
DA:284,42379
DA:285,42379
DA:286,42379
DA:288,8604014
DA:289,8604014
DA:290,8604014
DA:292,8519383
DA:293,8519383
DA:294,8519383
DA:295,8519383
DA:296,8519383
DA:298,84631
DA:299,84631
DA:300,84631
DA:301,0
DA:303,84631
DA:304,84631
DA:305,0
DA:307,84631
DA:308,84631
DA:310,35065075
DA:311,35065075
DA:312,35065075
DA:313,35065075
DA:314,35065075
DA:315,35065075
DA:316,35065075
DA:317,35065075
DA:318,35065075
DA:319,35065075
DA:320,35065075
DA:321,35065075
DA:322,35065075
DA:323,35065075
DA:325,138574
DA:326,138574
DA:327,138574
DA:328,138574
DA:329,138574
DA:330,138574
DA:331,138574
DA:332,138574
DA:333,138574
DA:335,16940552
DA:336,16940552
DA:337,16940552
DA:338,16940552
DA:340,35040461
DA:341,35040461
DA:342,35040461
DA:343,35040461
DA:345,25366731
DA:346,25366731
DA:347,25366731
DA:348,8463935
DA:349,16902796
DA:350,16902796
DA:351,25366731
DA:353,16952782
DA:354,16952782
DA:357,16952782
DA:358,16952782
DA:360,18127278
DA:361,18021527
DA:362,18021527
DA:363,18021527
DA:365,18021527
DA:366,979065
DA:367,16847031
DA:368,195431
DA:372,105751
DA:373,16952782
DA:375,138574
DA:376,138574
DA:377,138574
DA:378,136997
DA:379,1577
DA:380,1577
DA:381,1577
DA:382,1577
DA:383,1577
DA:385,138574
DA:387,24599
DA:388,24599
DA:389,24599
DA:390,24599
DA:391,24599
DA:392,24599
DA:394,24599
DA:396,86470
DA:397,86470
DA:398,86470
DA:404,86470
DA:405,4
DA:409,1
DA:410,3
DA:412,3
DA:413,86466
DA:418,86466
DA:419,102
DA:423,0
DA:424,102
DA:426,102
DA:427,86364
DA:429,86364
DA:430,6645
DA:431,6645
DA:432,0
DA:434,6645
DA:435,6645
DA:436,0
DA:441,6645
DA:442,0
DA:443,0
DA:444,0
DA:446,6645
DA:447,79719
DA:448,86364
DA:449,86364
DA:451,86364
DA:452,86364
DA:453,15
DA:454,15
DA:455,15
DA:459,11
DA:460,11
DA:461,11
DA:462,11
DA:463,4
DA:464,4
DA:465,4
DA:466,4
DA:467,4
DA:468,86349
DA:470,86353
DA:471,86353
DA:472,86353
DA:473,86353
DA:475,86353
DA:476,21101
DA:477,65252
DA:479,65252
DA:480,65252
DA:481,86470
DA:483,214061
DA:484,214061
DA:485,214061
DA:486,214061
DA:487,214061
DA:488,214061
DA:490,138574
DA:492,138574
DA:493,138574
DA:494,138574
DA:495,138574
DA:498,138574
DA:499,138574
DA:500,138574
DA:503,138574
DA:504,138574
DA:505,138574
DA:506,138574
DA:507,138574
DA:510,138574
DA:511,138574
DA:512,138574
DA:513,138574
DA:514,138574
DA:515,138574
DA:516,138574
DA:519,138574
DA:520,138574
DA:521,138574
DA:523,16847328
DA:524,16847328
DA:525,16847328
DA:529,8434790
DA:530,5477
DA:531,8429313
DA:532,8429313
DA:533,8429313
DA:534,31
DA:535,8429282
DA:536,8412538
DA:537,16841820
DA:538,16841820
DA:539,19399
DA:540,16822421
DA:541,16822421
DA:542,16847328
DA:544,16867230
DA:545,16867230
DA:546,16867230
DA:547,16867230
DA:548,16867230
DA:549,16867230
DA:550,16867230
DA:551,16867230
DA:552,16867230
DA:553,16867230
DA:554,16867230
DA:555,16867230
DA:556,16867230
DA:557,16867230
DA:559,16867230
DA:561,73322
DA:562,73322
DA:563,73322
DA:564,73322
DA:565,73322
DA:566,73322
DA:568,27182
DA:569,27182
DA:570,27182
DA:571,27182
DA:573,51200
DA:574,51200
DA:575,51200
DA:576,51200
DA:577,51200
DA:578,51200
DA:579,51200
DA:580,51200
DA:581,51200
DA:583,245
DA:584,245
DA:585,245
DA:586,488
DA:587,488
DA:588,488
DA:589,488
DA:590,245
DA:591,245
DA:593,12
DA:599,12
DA:600,12
DA:601,0
DA:603,12
DA:604,12
DA:605,12
DA:606,12
DA:607,12
DA:608,12
DA:609,12
DA:611,12
DA:612,12
DA:613,12
DA:614,12
DA:615,12
DA:617,12
DA:620,12
DA:621,12
DA:624,12
DA:625,12
DA:626,286
DA:627,286
DA:628,286
DA:629,286
DA:630,286
DA:632,12
DA:634,12
DA:635,295
DA:636,295
DA:637,295
DA:638,295
DA:640,12
DA:641,12
DA:643,22
DA:646,22
DA:647,22
DA:648,0
DA:650,22
DA:651,22
DA:652,22
DA:653,22
DA:654,22
DA:655,22
DA:656,22
DA:658,22
DA:659,22
DA:660,22
DA:661,22
DA:662,22
DA:664,22
DA:667,22
DA:668,22
DA:671,22
DA:672,22
DA:673,31
DA:674,31
DA:675,31
DA:676,31
DA:677,31
DA:679,22
DA:681,22
DA:682,22
DA:683,22
DA:684,22
DA:685,22
DA:686,22
DA:687,124
DA:688,22
DA:689,22
DA:690,52
DA:691,52
DA:692,52
DA:693,52
DA:695,22
DA:696,22
DA:698,9038
DA:701,9038
DA:702,9038
DA:703,9038
DA:704,9038
DA:705,9038
DA:706,9038
DA:707,9038
DA:709,9038
DA:710,9038
DA:711,9038
DA:712,9038
DA:713,9038
DA:715,9038
DA:718,9038
DA:719,9038
DA:723,9038
DA:725,9038
DA:726,9038
DA:727,9038
DA:728,9038
DA:729,9038
DA:730,9038
DA:731,68364
DA:732,9038
DA:733,9038
DA:734,28563
DA:735,28563
DA:736,28563
DA:737,28563
DA:738,28563
DA:740,9038
DA:743,9038
DA:744,9038
DA:745,37600
DA:746,37600
DA:747,37600
DA:748,37600
DA:750,9038
DA:751,9038
DA:753,2165
DA:756,2165
DA:757,2165
DA:758,2165
DA:759,2165
DA:760,2165
DA:761,2165
DA:762,2165
DA:764,2165
DA:765,2165
DA:766,2165
DA:767,2165
DA:768,2165
DA:770,2165
DA:773,2165
DA:774,2165
DA:776,2165
DA:777,2165
DA:778,2165
DA:779,2165
DA:780,2165
DA:781,2165
DA:782,2165
DA:783,2165
DA:784,17310
DA:785,2165
DA:786,2165
DA:787,2165
DA:788,2165
DA:789,2165
DA:790,2165
DA:791,2165
DA:792,2165
DA:794,2165
DA:795,2165
DA:797,2165
DA:798,2165
DA:799,2165
DA:800,2165
DA:801,2165
DA:802,17186
DA:803,2165
DA:804,2165
DA:805,2165
DA:806,4330
DA:807,4330
DA:808,4330
DA:809,4330
DA:811,2165
DA:812,2165
DA:814,9857
DA:815,9857
DA:816,9857
DA:817,9857
DA:818,9857
DA:819,9857
DA:820,9857
DA:821,9857
DA:823,9857
DA:824,9857
DA:825,9857
DA:826,9857
DA:827,9857
DA:829,9857
DA:834,9857
DA:835,9851
DA:836,9851
DA:837,9851
DA:839,9857
DA:840,9851
DA:841,9851
DA:842,9851
DA:843,9857
DA:844,9857
DA:846,9857
DA:847,9857
DA:848,9857
DA:849,9857
DA:850,9854
DA:851,9854
DA:852,9854
DA:853,9854
DA:855,9857
DA:856,9857
DA:858,21094
DA:859,21094
DA:860,21094
DA:863,21094
DA:864,9857
DA:865,11237
DA:868,11237
DA:872,12
DA:873,11225
DA:876,11225
DA:877,22
DA:878,11203
DA:881,11203
DA:882,9038
DA:883,2165
DA:886,2165
DA:887,21094
DA:889,11239
DA:890,11239
DA:891,11239
DA:892,11239
DA:893,85943
DA:894,11239
DA:895,11239
DA:896,11239
DA:897,11239
DA:898,11239
DA:904,24598
DA:905,24598
DA:906,24598
DA:908,12306
DA:909,0
DA:910,12306
DA:911,12306
DA:912,12306
DA:913,0
DA:915,12306
DA:916,12306
DA:917,0
DA:919,12292
DA:920,24598
DA:921,24598
DA:922,3
DA:923,24595
DA:924,24595
DA:925,24595
DA:926,24595
DA:927,24598
DA:934,24599
DA:935,24599
DA:936,24599
DA:937,24599
DA:938,24599
DA:940,24599
DA:941,24599
DA:942,24599
DA:943,24599
DA:944,24599
DA:947,24599
DA:948,24599
DA:954,24599
DA:957,22510
DA:958,22510
DA:959,22510
DA:960,2089
DA:963,2089
DA:964,2089
DA:965,2089
DA:966,2089
DA:970,2089
DA:971,2547
DA:972,2547
DA:973,2547
DA:974,2547
DA:975,2317
DA:976,2317
DA:977,2317
DA:978,2317
DA:979,2317
DA:980,2317
DA:981,2547
DA:985,2089
DA:986,2089
DA:987,24599
DA:996,1
DA:997,1
DA:998,1
DA:999,1
DA:1000,1
DA:1001,1
DA:1004,1
DA:1005,1
DA:1006,1
DA:1007,1
DA:1008,1
DA:1009,1
DA:1012,1
DA:1013,1
DA:1014,1
DA:1015,1
DA:1016,1
DA:1017,1
DA:1018,1
DA:1019,21
DA:1020,20
DA:1021,20
DA:1022,20
DA:1023,20
DA:1024,20
DA:1030,198
DA:1031,1
DA:1032,1
DA:1034,1
DA:1035,1
DA:1036,1
DA:1037,1
DA:1038,1
DA:1039,1
DA:1040,1
DA:1041,1
DA:1042,1
DA:1043,1
DA:1045,11
DA:1046,10
DA:1047,10
DA:1048,10
DA:1049,10
DA:1050,10
DA:1053,11
DA:1054,10
DA:1055,10
DA:1056,10
DA:1057,10
DA:1058,10
DA:1062,1
DA:1063,1
DA:1064,1
DA:1065,6
DA:1066,5
DA:1067,5
DA:1068,5
DA:1069,5
DA:1070,5
DA:1073,6
DA:1074,5
DA:1075,5
DA:1076,5
DA:1077,5
DA:1078,5
DA:1081,1
DA:1082,1
DA:1083,1
DA:1084,6
DA:1085,5
DA:1086,5
DA:1087,5
DA:1088,5
DA:1089,5
DA:1092,6
DA:1093,5
DA:1094,5
DA:1095,5
DA:1096,5
DA:1097,5
DA:1102,1
DA:1103,1
DA:1104,1
DA:1107,1
DA:1108,1
DA:1109,1
DA:1110,1
DA:1111,1
DA:1112,1
DA:1116,1
DA:1117,1
DA:1118,1
DA:1119,1
DA:1120,1
DA:1121,1
DA:1125,1
DA:1126,1
DA:1127,1
DA:1128,1
DA:1129,1
DA:1130,1
DA:1132,1
DA:1135,1
DA:1136,1
DA:1137,1
DA:1138,1
DA:1139,1
DA:1140,1
DA:1141,1
DA:1142,1
DA:1143,1
DA:1144,1
DA:1145,1
DA:1146,1
DA:1147,1
DA:1148,1
DA:1149,1
DA:1150,1
DA:1151,1
DA:1152,1
DA:1153,1
DA:1154,1
DA:1155,1
DA:1158,1
DA:1159,1
DA:1160,1
DA:1161,1
DA:1162,1
DA:1163,1
DA:1164,1
DA:1165,1
DA:1166,1
DA:1168,1
DA:1169,1
DA:1170,1
DA:1171,1
DA:1172,1
DA:1173,1
DA:1174,1
DA:1175,1
DA:1177,1
DA:1178,1
DA:1180,1
DA:1181,1
DA:1182,1
DA:1183,1
DA:1184,1
DA:1185,1
DA:1186,1
DA:1188,1
DA:1189,1
DA:1190,1
DA:1191,1
DA:1192,1
DA:1193,1
DA:1196,1
DA:1197,1
DA:1198,1
DA:1199,1
DA:1200,1
DA:1201,1
DA:1202,1
DA:1204,1
DA:1205,1
DA:1206,1
DA:1207,1
DA:1208,1
DA:1210,1
DA:1211,1
DA:1212,1
DA:1213,1
DA:1214,1
DA:1217,1
DA:1218,1
DA:1219,1
DA:1220,1
DA:1221,1
DA:1222,1
DA:1223,1
DA:1225,1
DA:1226,1
DA:1227,1
DA:1228,1
DA:1229,1
DA:1230,1
DA:1233,1
DA:1234,1
DA:1235,1
DA:1236,1
DA:1237,1
DA:1238,1
DA:1239,1
DA:1241,1
DA:1242,1
DA:1244,1
DA:1245,1
DA:1246,1
DA:1247,1
DA:1248,1
DA:1249,1
DA:1252,1
DA:1253,1
DA:1254,1
DA:1255,1
DA:1256,1
DA:1257,1
DA:1258,1
DA:1259,1
DA:1260,1
DA:1261,1
DA:1262,1
DA:1263,1
DA:1264,1
DA:1266,1
DA:1267,1
DA:1268,1
DA:1269,1
DA:1270,1
DA:1271,1
DA:1272,1
DA:1273,1
DA:1276,1
DA:1277,1
DA:1278,1
DA:1279,1
DA:1280,1
DA:1281,1
DA:1282,1
DA:1285,1
DA:1286,1
DA:1287,1
DA:1288,1
DA:1289,1
DA:1290,1
DA:1291,1
DA:1294,1
DA:1295,1
DA:1296,1
DA:1298,1
DA:1299,1
DA:1300,1
DA:1301,1
DA:1302,1
DA:1303,1
DA:1304,1
DA:1305,1
DA:1306,1
DA:1307,1
DA:1308,1
DA:1310,1
DA:1311,1
DA:1312,1
DA:1313,1
DA:1314,1
DA:1316,1
DA:1317,1
DA:1318,1
DA:1319,1
DA:1320,1
DA:1322,1
DA:1323,1
DA:1324,1
DA:1325,1
DA:1326,1
DA:1327,1
DA:1328,1
DA:1329,1
DA:1330,1
DA:1332,1
DA:1333,1
DA:1334,1
DA:1335,1
DA:1336,1
DA:1338,1
DA:1339,1
DA:1340,1
DA:1341,1
DA:1342,1
DA:1345,1
DA:1346,1
DA:1347,1
DA:1348,1
DA:1349,1
DA:1350,1
DA:1351,1
DA:1353,1
DA:1354,1
DA:1355,1
DA:1356,1
DA:1357,1
DA:1358,1
DA:1359,1
DA:1361,1
DA:1362,1
DA:1363,1
DA:1364,1
DA:1365,1
DA:1367,1
DA:1368,1
DA:1369,1
DA:1370,1
DA:1371,1
DA:1372,1
DA:1374,1
DA:1375,1
DA:1376,1
DA:1377,1
DA:1378,1
DA:1379,1
DA:1381,1
DA:1382,1
DA:1383,1
DA:1384,1
DA:1385,1
DA:1386,1
DA:1388,1
DA:1389,1
DA:1390,1
DA:1391,1
DA:1392,1
DA:1394,1
DA:1395,1
DA:1396,1
DA:1397,1
DA:1398,1
DA:1401,1
DA:1402,1
DA:1403,1
DA:1404,1
DA:1406,1
DA:1407,1
DA:1408,1
DA:1409,1
DA:1410,1
DA:1411,1
DA:1412,1
DA:1413,1
DA:1414,1
DA:1415,1
DA:1417,1
DA:1418,1
DA:1419,1
DA:1420,1
DA:1421,1
DA:1422,1
DA:1424,1
DA:1425,1
DA:1426,1
DA:1427,1
DA:1428,1
DA:1430,1
DA:1431,1
DA:1432,1
DA:1433,1
DA:1434,1
DA:1436,1
DA:1439,1
DA:1440,1
DA:1441,1
DA:1442,1
DA:1443,1
DA:1445,1
DA:1446,1
DA:1447,1
DA:1448,1
DA:1449,1
DA:1450,1
DA:1451,1
DA:1452,1
DA:1453,1
DA:1454,1
DA:1455,1
DA:1456,1
DA:1458,1
DA:1459,1
DA:1460,1
DA:1461,1
DA:1462,1
DA:1464,1
DA:1465,1
DA:1466,1
DA:1467,1
DA:1468,1
DA:1469,1
DA:1470,1
DA:1471,1
DA:1472,1
DA:1475,1
DA:1478,1
DA:1479,1
DA:1480,1
DA:1481,1
DA:1483,1
DA:1484,1
DA:1485,1
DA:1486,1
DA:1487,1
DA:1488,1
DA:1489,1
DA:1490,1
DA:1491,1
DA:1492,1
DA:1493,1
DA:1495,1
DA:1496,1
DA:1497,1
DA:1498,1
DA:1499,1
DA:1501,1
DA:1502,1
DA:1503,1
DA:1504,1
DA:1505,1
DA:1506,1
DA:1507,1
DA:1510,1
DA:1511,1
DA:1512,1
DA:1513,1
DA:1514,1
DA:1517,1
DA:1518,1
DA:1519,1
DA:1520,1
DA:1521,1
DA:1522,1
DA:1523,1
DA:1524,1
DA:1525,1
DA:1526,1
DA:1527,1
DA:1528,1
DA:1530,1
DA:1531,1
DA:1532,1
DA:1533,1
DA:1534,1
DA:1536,1
DA:1537,1
DA:1539,1
DA:1540,1
DA:1541,1
DA:1542,1
DA:1543,1
DA:1544,1
DA:1545,1
DA:1548,1
DA:1549,1
DA:1550,1
DA:1551,1
DA:1552,1
DA:1555,1
DA:1556,1
DA:1557,1
DA:1558,1
DA:1559,1
DA:1560,1
DA:1561,1
DA:1562,1
DA:1563,1
DA:1564,1
DA:1565,1
DA:1566,1
DA:1568,1
DA:1569,1
DA:1570,1
DA:1571,1
DA:1572,1
DA:1574,1
DA:1575,1
DA:1577,1
DA:1578,1
DA:1579,1
DA:1580,1
DA:1581,1
DA:1582,1
DA:1583,1
BRF:0
BRH:0
LF:1186
LH:1159
end_of_record
SF:/workspaces/digby/src/leaf_page_handler.rs
FN:43,_RNvMNtCskvx6Wg1ZZUs_5digby17leaf_page_handlerNtB2_15LeafPageHandler16add_to_leaf_page
FN:16,_RNvMNtCskvx6Wg1ZZUs_5digby17leaf_page_handlerNtB2_15LeafPageHandler9add_tuple
FN:26,_RNvMNtCskvx6Wg1ZZUs_5digby17leaf_page_handlerNtB2_15LeafPageHandler9map_pages
FN:192,_RNvNtNtCskvx6Wg1ZZUs_5digby17leaf_page_handler5testss_19test_add_big_tuples
FN:258,_RNvNtNtCskvx6Wg1ZZUs_5digby17leaf_page_handler5testss_26test_add_large_small_large
FN:222,_RNvNtNtCskvx6Wg1ZZUs_5digby17leaf_page_handler5testss_26test_add_small_large_large
FN:164,_RNvNtNtCskvx6Wg1ZZUs_5digby17leaf_page_handler5testss_26test_over_write_big_tuples
FN:125,_RNvNtNtCskvx6Wg1ZZUs_5digby17leaf_page_handler5testss_27test_small_tuple_split_page
FN:293,_RNvNtNtCskvx6Wg1ZZUs_5digby17leaf_page_handler5testss_34test_add_small_large_large_reverse
FN:43,_RNvMNtCsgKx49t2KK1I_5digby17leaf_page_handlerNtB2_15LeafPageHandler16add_to_leaf_page
FN:16,_RNvMNtCsgKx49t2KK1I_5digby17leaf_page_handlerNtB2_15LeafPageHandler9add_tuple
FN:26,_RNvMNtCsgKx49t2KK1I_5digby17leaf_page_handlerNtB2_15LeafPageHandler9map_pages
FNDA:45252,_RNvMNtCskvx6Wg1ZZUs_5digby17leaf_page_handlerNtB2_15LeafPageHandler16add_to_leaf_page
FNDA:45244,_RNvMNtCskvx6Wg1ZZUs_5digby17leaf_page_handlerNtB2_15LeafPageHandler9add_tuple
FNDA:45037,_RNvMNtCskvx6Wg1ZZUs_5digby17leaf_page_handlerNtB2_15LeafPageHandler9map_pages
FNDA:1,_RNvNtNtCskvx6Wg1ZZUs_5digby17leaf_page_handler5testss_19test_add_big_tuples
FNDA:1,_RNvNtNtCskvx6Wg1ZZUs_5digby17leaf_page_handler5testss_26test_add_large_small_large
FNDA:1,_RNvNtNtCskvx6Wg1ZZUs_5digby17leaf_page_handler5testss_26test_add_small_large_large
FNDA:1,_RNvNtNtCskvx6Wg1ZZUs_5digby17leaf_page_handler5testss_26test_over_write_big_tuples
FNDA:1,_RNvNtNtCskvx6Wg1ZZUs_5digby17leaf_page_handler5testss_27test_small_tuple_split_page
FNDA:1,_RNvNtNtCskvx6Wg1ZZUs_5digby17leaf_page_handler5testss_34test_add_small_large_large_reverse
FNDA:50,_RNvMNtCsgKx49t2KK1I_5digby17leaf_page_handlerNtB2_15LeafPageHandler16add_to_leaf_page
FNDA:50,_RNvMNtCsgKx49t2KK1I_5digby17leaf_page_handlerNtB2_15LeafPageHandler9add_tuple
FNDA:50,_RNvMNtCsgKx49t2KK1I_5digby17leaf_page_handlerNtB2_15LeafPageHandler9map_pages
FNF:9
FNH:9
DA:16,45294
DA:17,45294
DA:18,45294
DA:19,45294
DA:20,45294
DA:21,45294
DA:22,45294
DA:23,45294
DA:24,45294
DA:26,45087
DA:27,45087
DA:28,45087
DA:29,45087
DA:30,45087
DA:31,45087
DA:32,111258
DA:33,66171
DA:34,66171
DA:35,45087
DA:36,45087
DA:37,66171
DA:38,66171
DA:39,66171
DA:41,45087
DA:43,45302
DA:44,45302
DA:45,45302
DA:46,45302
DA:47,45302
DA:48,45302
DA:50,45302
DA:51,45302
DA:53,24211
DA:54,21091
DA:58,21091
DA:59,21091
DA:63,21091
DA:66,3
DA:67,3
DA:68,3
DA:69,3
DA:70,3
DA:71,21088
DA:73,21088
DA:76,21088
DA:77,2130
DA:78,2130
DA:79,2129
DA:80,2129
DA:81,2129
DA:87,1
DA:88,1
DA:89,1
DA:90,1
DA:91,1
DA:92,0
DA:94,1
DA:98,18958
DA:99,18958
DA:100,18951
DA:101,18951
DA:102,18951
DA:106,7
DA:107,7
DA:108,7
DA:109,7
DA:110,7
DA:111,0
DA:113,7
DA:116,45302
DA:125,1
DA:126,1
DA:127,1
DA:128,1
DA:129,1
DA:130,1
DA:132,1
DA:133,1
DA:135,1
DA:136,1
DA:137,1
DA:138,1
DA:140,194
DA:141,194
DA:142,194
DA:143,194
DA:144,194
DA:145,194
DA:148,194
DA:149,194
DA:150,1
DA:151,193
DA:152,193
DA:155,1
DA:156,1
DA:157,1
DA:158,1
DA:159,1
DA:160,1
DA:164,1
DA:165,1
DA:166,1
DA:167,1
DA:168,1
DA:169,1
DA:170,1
DA:173,1
DA:174,3
DA:175,2
DA:176,2
DA:177,2
DA:178,2
DA:179,2
DA:180,2
DA:181,2
DA:182,2
DA:183,2
DA:184,2
DA:185,2
DA:186,2
DA:187,2
DA:188,1
DA:189,1
DA:192,1
DA:193,1
DA:194,1
DA:195,1
DA:196,1
DA:197,1
DA:198,1
DA:199,1
DA:200,1
DA:204,1
DA:205,3
DA:206,2
DA:207,2
DA:208,2
DA:209,2
DA:210,2
DA:211,2
DA:212,2
DA:213,2
DA:214,2
DA:215,2
DA:216,2
DA:217,2
DA:218,1
DA:219,1
DA:222,1
DA:223,1
DA:224,1
DA:225,1
DA:226,1
DA:227,1
DA:228,1
DA:229,1
DA:231,1
DA:235,1
DA:236,4
DA:237,3
DA:239,3
DA:240,1
DA:241,2
DA:242,2
DA:243,2
DA:245,3
DA:246,3
DA:247,3
DA:248,3
DA:250,3
DA:251,3
DA:252,3
DA:254,1
DA:255,1
DA:258,1
DA:259,1
DA:260,1
DA:261,1
DA:262,1
DA:263,1
DA:264,1
DA:265,1
DA:269,1
DA:270,4
DA:271,3
DA:273,3
DA:274,1
DA:275,2
DA:276,2
DA:277,2
DA:279,3
DA:280,3
DA:281,3
DA:282,3
DA:285,3
DA:286,3
DA:287,3
DA:289,1
DA:290,1
DA:293,1
DA:294,1
DA:295,1
DA:296,1
DA:297,1
DA:298,1
DA:299,1
DA:300,1
DA:302,1
DA:306,1
DA:307,4
DA:308,3
DA:309,3
DA:311,3
DA:312,1
DA:313,2
DA:314,2
DA:315,2
DA:317,3
DA:318,3
DA:319,3
DA:320,3
DA:322,3
DA:323,3
DA:324,3
DA:326,1
DA:327,1
BRF:0
BRH:0
LF:226
LH:224
end_of_record
SF:/workspaces/digby/src/overflow_page.rs
FN:124,_RNvNtNtCskvx6Wg1ZZUs_5digby13overflow_page5testss_17test_adding_bytes
FN:33,_RNvXNtCskvx6Wg1ZZUs_5digby13overflow_pageNtB2_12OverflowPageNtNtB4_4page9PageTrait11get_version
FN:21,_RNvXNtCskvx6Wg1ZZUs_5digby13overflow_pageNtB2_12OverflowPageNtNtB4_4page9PageTrait15get_page_number
FN:25,_RNvXNtCskvx6Wg1ZZUs_5digby13overflow_pageNtB2_12OverflowPageNtNtB4_4page9PageTrait15set_page_number
FN:45,_RNvMs_NtCskvx6Wg1ZZUs_5digby13overflow_pageNtB4_12OverflowPage10create_new
FN:72,_RNvMs_NtCskvx6Wg1ZZUs_5digby13overflow_pageNtB4_12OverflowPage13get_next_page
FN:86,_RNvMs_NtCskvx6Wg1ZZUs_5digby13overflow_pageNtB4_12OverflowPage13get_used_size
FN:78,_RNvMs_NtCskvx6Wg1ZZUs_5digby13overflow_pageNtB4_12OverflowPage13set_next_page
FN:92,_RNvMs_NtCskvx6Wg1ZZUs_5digby13overflow_pageNtB4_12OverflowPage13set_used_size
FN:100,_RNvMs_NtCskvx6Wg1ZZUs_5digby13overflow_pageNtB4_12OverflowPage14get_free_space
FN:111,_RNvMs_NtCskvx6Wg1ZZUs_5digby13overflow_pageNtB4_12OverflowPage15get_tuple_bytes
FN:54,_RNvMs_NtCskvx6Wg1ZZUs_5digby13overflow_pageNtB4_12OverflowPage3new
FN:104,_RNvMs_NtCskvx6Wg1ZZUs_5digby13overflow_pageNtB4_12OverflowPage9add_bytes
FN:64,_RNvMs_NtCskvx6Wg1ZZUs_5digby13overflow_pageNtB4_12OverflowPage9from_page
FN:37,_RNvXNtCskvx6Wg1ZZUs_5digby13overflow_pageNtB2_12OverflowPageNtNtB4_4page9PageTrait11set_version
FN:17,_RNvXNtCskvx6Wg1ZZUs_5digby13overflow_pageNtB2_12OverflowPageNtNtB4_4page9PageTrait14get_page_bytes
FN:29,_RNvXNtCskvx6Wg1ZZUs_5digby13overflow_pageNtB2_12OverflowPageNtNtB4_4page9PageTrait8get_page
FN:45,_RNvMs_NtCsgKx49t2KK1I_5digby13overflow_pageNtB4_12OverflowPage10create_new
FN:72,_RNvMs_NtCsgKx49t2KK1I_5digby13overflow_pageNtB4_12OverflowPage13get_next_page
FN:86,_RNvMs_NtCsgKx49t2KK1I_5digby13overflow_pageNtB4_12OverflowPage13get_used_size
FN:78,_RNvMs_NtCsgKx49t2KK1I_5digby13overflow_pageNtB4_12OverflowPage13set_next_page
FN:92,_RNvMs_NtCsgKx49t2KK1I_5digby13overflow_pageNtB4_12OverflowPage13set_used_size
FN:100,_RNvMs_NtCsgKx49t2KK1I_5digby13overflow_pageNtB4_12OverflowPage14get_free_space
FN:111,_RNvMs_NtCsgKx49t2KK1I_5digby13overflow_pageNtB4_12OverflowPage15get_tuple_bytes
FN:54,_RNvMs_NtCsgKx49t2KK1I_5digby13overflow_pageNtB4_12OverflowPage3new
FN:104,_RNvMs_NtCsgKx49t2KK1I_5digby13overflow_pageNtB4_12OverflowPage9add_bytes
FN:64,_RNvMs_NtCsgKx49t2KK1I_5digby13overflow_pageNtB4_12OverflowPage9from_page
FN:33,_RNvXNtCsgKx49t2KK1I_5digby13overflow_pageNtB2_12OverflowPageNtNtB4_4page9PageTrait11get_version
FN:37,_RNvXNtCsgKx49t2KK1I_5digby13overflow_pageNtB2_12OverflowPageNtNtB4_4page9PageTrait11set_version
FN:17,_RNvXNtCsgKx49t2KK1I_5digby13overflow_pageNtB2_12OverflowPageNtNtB4_4page9PageTrait14get_page_bytes
FN:21,_RNvXNtCsgKx49t2KK1I_5digby13overflow_pageNtB2_12OverflowPageNtNtB4_4page9PageTrait15get_page_number
FN:25,_RNvXNtCsgKx49t2KK1I_5digby13overflow_pageNtB2_12OverflowPageNtNtB4_4page9PageTrait15set_page_number
FN:29,_RNvXNtCsgKx49t2KK1I_5digby13overflow_pageNtB2_12OverflowPageNtNtB4_4page9PageTrait8get_page
FNDA:1,_RNvNtNtCskvx6Wg1ZZUs_5digby13overflow_page5testss_17test_adding_bytes
FNDA:0,_RNvXNtCskvx6Wg1ZZUs_5digby13overflow_pageNtB2_12OverflowPageNtNtB4_4page9PageTrait11get_version
FNDA:0,_RNvXNtCskvx6Wg1ZZUs_5digby13overflow_pageNtB2_12OverflowPageNtNtB4_4page9PageTrait15get_page_number
FNDA:0,_RNvXNtCskvx6Wg1ZZUs_5digby13overflow_pageNtB2_12OverflowPageNtNtB4_4page9PageTrait15set_page_number
FNDA:11,_RNvMs_NtCskvx6Wg1ZZUs_5digby13overflow_pageNtB4_12OverflowPage10create_new
FNDA:14,_RNvMs_NtCskvx6Wg1ZZUs_5digby13overflow_pageNtB4_12OverflowPage13get_next_page
FNDA:19,_RNvMs_NtCskvx6Wg1ZZUs_5digby13overflow_pageNtB4_12OverflowPage13get_used_size
FNDA:11,_RNvMs_NtCskvx6Wg1ZZUs_5digby13overflow_pageNtB4_12OverflowPage13set_next_page
FNDA:12,_RNvMs_NtCskvx6Wg1ZZUs_5digby13overflow_pageNtB4_12OverflowPage13set_used_size
FNDA:11,_RNvMs_NtCskvx6Wg1ZZUs_5digby13overflow_pageNtB4_12OverflowPage14get_free_space
FNDA:8,_RNvMs_NtCskvx6Wg1ZZUs_5digby13overflow_pageNtB4_12OverflowPage15get_tuple_bytes
FNDA:12,_RNvMs_NtCskvx6Wg1ZZUs_5digby13overflow_pageNtB4_12OverflowPage3new
FNDA:12,_RNvMs_NtCskvx6Wg1ZZUs_5digby13overflow_pageNtB4_12OverflowPage9add_bytes
FNDA:14,_RNvMs_NtCskvx6Wg1ZZUs_5digby13overflow_pageNtB4_12OverflowPage9from_page
FNDA:12,_RNvXNtCskvx6Wg1ZZUs_5digby13overflow_pageNtB2_12OverflowPageNtNtB4_4page9PageTrait11set_version
FNDA:8,_RNvXNtCskvx6Wg1ZZUs_5digby13overflow_pageNtB2_12OverflowPageNtNtB4_4page9PageTrait14get_page_bytes
FNDA:23,_RNvXNtCskvx6Wg1ZZUs_5digby13overflow_pageNtB2_12OverflowPageNtNtB4_4page9PageTrait8get_page
FNDA:74,_RNvMs_NtCsgKx49t2KK1I_5digby13overflow_pageNtB4_12OverflowPage10create_new
FNDA:148,_RNvMs_NtCsgKx49t2KK1I_5digby13overflow_pageNtB4_12OverflowPage13get_next_page
FNDA:148,_RNvMs_NtCsgKx49t2KK1I_5digby13overflow_pageNtB4_12OverflowPage13get_used_size
FNDA:74,_RNvMs_NtCsgKx49t2KK1I_5digby13overflow_pageNtB4_12OverflowPage13set_next_page
FNDA:74,_RNvMs_NtCsgKx49t2KK1I_5digby13overflow_pageNtB4_12OverflowPage13set_used_size
FNDA:74,_RNvMs_NtCsgKx49t2KK1I_5digby13overflow_pageNtB4_12OverflowPage14get_free_space
FNDA:74,_RNvMs_NtCsgKx49t2KK1I_5digby13overflow_pageNtB4_12OverflowPage15get_tuple_bytes
FNDA:74,_RNvMs_NtCsgKx49t2KK1I_5digby13overflow_pageNtB4_12OverflowPage3new
FNDA:74,_RNvMs_NtCsgKx49t2KK1I_5digby13overflow_pageNtB4_12OverflowPage9add_bytes
FNDA:148,_RNvMs_NtCsgKx49t2KK1I_5digby13overflow_pageNtB4_12OverflowPage9from_page
FNDA:0,_RNvXNtCsgKx49t2KK1I_5digby13overflow_pageNtB2_12OverflowPageNtNtB4_4page9PageTrait11get_version
FNDA:74,_RNvXNtCsgKx49t2KK1I_5digby13overflow_pageNtB2_12OverflowPageNtNtB4_4page9PageTrait11set_version
FNDA:74,_RNvXNtCsgKx49t2KK1I_5digby13overflow_pageNtB2_12OverflowPageNtNtB4_4page9PageTrait14get_page_bytes
FNDA:0,_RNvXNtCsgKx49t2KK1I_5digby13overflow_pageNtB2_12OverflowPageNtNtB4_4page9PageTrait15get_page_number
FNDA:0,_RNvXNtCsgKx49t2KK1I_5digby13overflow_pageNtB2_12OverflowPageNtNtB4_4page9PageTrait15set_page_number
FNDA:148,_RNvXNtCsgKx49t2KK1I_5digby13overflow_pageNtB2_12OverflowPageNtNtB4_4page9PageTrait8get_page
FNF:17
FNH:14
DA:17,82
DA:18,82
DA:19,82
DA:21,0
DA:22,0
DA:23,0
DA:25,0
DA:26,0
DA:27,0
DA:29,171
DA:30,171
DA:31,171
DA:33,0
DA:34,0
DA:35,0
DA:37,86
DA:38,86
DA:39,86
DA:45,85
DA:46,85
DA:47,85
DA:48,85
DA:49,85
DA:50,85
DA:52,85
DA:54,86
DA:55,86
DA:56,86
DA:57,86
DA:58,86
DA:59,86
DA:60,86
DA:61,86
DA:62,86
DA:64,162
DA:65,162
DA:66,0
DA:67,162
DA:69,162
DA:70,162
DA:72,162
DA:73,162
DA:74,162
DA:75,162
DA:76,162
DA:78,85
DA:79,85
DA:80,85
DA:81,85
DA:82,85
DA:83,85
DA:84,85
DA:86,167
DA:87,167
DA:88,167
DA:89,167
DA:90,167
DA:92,86
DA:93,86
DA:94,86
DA:95,86
DA:96,86
DA:97,86
DA:98,86
DA:100,85
DA:101,85
DA:102,85
DA:104,86
DA:105,86
DA:106,86
DA:107,86
DA:108,86
DA:109,86
DA:111,82
DA:112,82
DA:114,82
DA:115,82
DA:116,82
DA:124,1
DA:125,1
DA:126,1
DA:127,1
DA:129,1
DA:130,1
DA:131,1
DA:132,1
DA:133,1
BRF:0
BRH:0
LF:87
LH:77
end_of_record
SF:/workspaces/digby/src/overflow_page_handler.rs
FN:47,_RNvMNtCskvx6Wg1ZZUs_5digby21overflow_page_handlerNtB2_19OverflowPageHandler18get_overflow_tuple
FN:13,_RNvMNtCskvx6Wg1ZZUs_5digby21overflow_page_handlerNtB2_19OverflowPageHandler20store_overflow_tuple
FN:79,_RNvMNtCskvx6Wg1ZZUs_5digby21overflow_page_handlerNtB2_19OverflowPageHandler21delete_overflow_pages
FN:62,_RNvMNtCskvx6Wg1ZZUs_5digby21overflow_page_handlerNtB2_19OverflowPageHandler27delete_overflow_tuple_pages
FN:106,_RNvNtNtCskvx6Wg1ZZUs_5digby21overflow_page_handler5testss_20store_overflow_tuple
FN:47,_RNvMNtCsgKx49t2KK1I_5digby21overflow_page_handlerNtB2_19OverflowPageHandler18get_overflow_tuple
FN:13,_RNvMNtCsgKx49t2KK1I_5digby21overflow_page_handlerNtB2_19OverflowPageHandler20store_overflow_tuple
FN:79,_RNvMNtCsgKx49t2KK1I_5digby21overflow_page_handlerNtB2_19OverflowPageHandler21delete_overflow_pages
FN:62,_RNvMNtCsgKx49t2KK1I_5digby21overflow_page_handlerNtB2_19OverflowPageHandler27delete_overflow_tuple_pages
FNDA:1,_RNvMNtCskvx6Wg1ZZUs_5digby21overflow_page_handlerNtB2_19OverflowPageHandler18get_overflow_tuple
FNDA:5,_RNvMNtCskvx6Wg1ZZUs_5digby21overflow_page_handlerNtB2_19OverflowPageHandler20store_overflow_tuple
FNDA:1,_RNvMNtCskvx6Wg1ZZUs_5digby21overflow_page_handlerNtB2_19OverflowPageHandler21delete_overflow_pages
FNDA:45040,_RNvMNtCskvx6Wg1ZZUs_5digby21overflow_page_handlerNtB2_19OverflowPageHandler27delete_overflow_tuple_pages
FNDA:1,_RNvNtNtCskvx6Wg1ZZUs_5digby21overflow_page_handler5testss_20store_overflow_tuple
FNDA:35,_RNvMNtCsgKx49t2KK1I_5digby21overflow_page_handlerNtB2_19OverflowPageHandler18get_overflow_tuple
FNDA:35,_RNvMNtCsgKx49t2KK1I_5digby21overflow_page_handlerNtB2_19OverflowPageHandler20store_overflow_tuple
FNDA:35,_RNvMNtCsgKx49t2KK1I_5digby21overflow_page_handlerNtB2_19OverflowPageHandler21delete_overflow_pages
FNDA:85,_RNvMNtCsgKx49t2KK1I_5digby21overflow_page_handlerNtB2_19OverflowPageHandler27delete_overflow_tuple_pages
FNF:5
FNH:5
DA:13,40
DA:14,40
DA:15,40
DA:16,40
DA:17,40
DA:18,40
DA:22,40
DA:23,40
DA:25,40
DA:28,85
DA:29,85
DA:30,85
DA:31,85
DA:33,85
DA:34,85
DA:35,85
DA:36,85
DA:37,85
DA:38,85
DA:39,40
DA:40,45
DA:41,45
DA:44,40
DA:45,40
DA:47,36
DA:48,36
DA:50,36
DA:52,81
DA:53,81
DA:54,81
DA:55,81
DA:56,36
DA:57,45
DA:59,36
DA:60,36
DA:62,45125
DA:63,45125
DA:64,45125
DA:65,45125
DA:66,45125
DA:67,45125
DA:68,45082
DA:69,43
DA:70,43
DA:71,43
DA:72,7
DA:73,36
DA:75,36
DA:76,36
DA:77,45125
DA:79,36
DA:80,36
DA:81,36
DA:82,36
DA:83,36
DA:84,36
DA:85,36
DA:86,36
DA:88,81
DA:89,81
DA:90,81
DA:91,36
DA:92,45
DA:93,45
DA:94,45
DA:97,36
DA:98,36
DA:106,1
DA:107,1
DA:109,1
DA:110,1
DA:111,1
DA:112,1
DA:113,1
DA:114,1
DA:116,1
DA:117,1
DA:120,1
DA:121,1
DA:122,1
DA:123,1
DA:124,1
DA:127,1
DA:128,1
DA:129,1
DA:130,1
DA:131,1
DA:132,1
DA:133,1
DA:134,1
DA:137,1
DA:138,1
DA:139,1
DA:141,1
DA:142,1
DA:143,1
DA:144,1
DA:145,1
DA:148,1
DA:149,1
DA:150,1
DA:151,1
DA:152,1
DA:154,1
DA:155,1
DA:156,1
DA:157,1
DA:158,1
DA:160,1
DA:161,1
DA:162,1
DA:163,1
DA:164,1
DA:166,1
DA:168,1
DA:169,1
DA:170,1
DA:171,1
DA:172,1
DA:173,1
DA:174,1
DA:176,1
DA:179,1
DA:180,2
DA:181,1
DA:182,1
DA:184,1
DA:185,1
BRF:0
BRH:0
LF:128
LH:128
end_of_record
SF:/workspaces/digby/src/overflow_tuple.rs
FN:68,_RNvMs_NtCskvx6Wg1ZZUs_5digby14overflow_tupleNtB4_13OverflowTuple10from_bytes
FN:57,_RNvMs_NtCskvx6Wg1ZZUs_5digby14overflow_tupleNtB4_13OverflowTuple3new
FN:29,_RNvXNtCskvx6Wg1ZZUs_5digby14overflow_tupleNtB2_13OverflowTupleNtNtB4_5tuple10TupleTrait11get_version
FN:47,_RNvXNtCskvx6Wg1ZZUs_5digby14overflow_tupleNtB2_13OverflowTupleNtNtB4_5tuple10TupleTrait12get_overflow
FN:43,_RNvXNtCskvx6Wg1ZZUs_5digby14overflow_tupleNtB2_13OverflowTupleNtNtB4_5tuple10TupleTrait13get_byte_size
FN:39,_RNvXNtCskvx6Wg1ZZUs_5digby14overflow_tupleNtB2_13OverflowTupleNtNtB4_5tuple10TupleTrait14get_serialized
FN:34,_RNvXNtCskvx6Wg1ZZUs_5digby14overflow_tupleNtB2_13OverflowTupleNtNtB4_5tuple10TupleTrait17get_version_value
FN:19,_RNvXNtCskvx6Wg1ZZUs_5digby14overflow_tupleNtB2_13OverflowTupleNtNtB4_5tuple10TupleTrait7get_key
FN:24,_RNvXNtCskvx6Wg1ZZUs_5digby14overflow_tupleNtB2_13OverflowTupleNtNtB4_5tuple10TupleTrait9get_value
FN:78,_RNvNtNtCskvx6Wg1ZZUs_5digby14overflow_tuple5testss_10test_tuple
FN:95,_RNvNtNtCskvx6Wg1ZZUs_5digby14overflow_tuple5testss_21test_tuple_from_bytes
FN:68,_RNvMs_NtCsgKx49t2KK1I_5digby14overflow_tupleNtB4_13OverflowTuple10from_bytes
FN:57,_RNvMs_NtCsgKx49t2KK1I_5digby14overflow_tupleNtB4_13OverflowTuple3new
FN:29,_RNvXNtCsgKx49t2KK1I_5digby14overflow_tupleNtB2_13OverflowTupleNtNtB4_5tuple10TupleTrait11get_version
FN:47,_RNvXNtCsgKx49t2KK1I_5digby14overflow_tupleNtB2_13OverflowTupleNtNtB4_5tuple10TupleTrait12get_overflow
FN:43,_RNvXNtCsgKx49t2KK1I_5digby14overflow_tupleNtB2_13OverflowTupleNtNtB4_5tuple10TupleTrait13get_byte_size
FN:39,_RNvXNtCsgKx49t2KK1I_5digby14overflow_tupleNtB2_13OverflowTupleNtNtB4_5tuple10TupleTrait14get_serialized
FN:34,_RNvXNtCsgKx49t2KK1I_5digby14overflow_tupleNtB2_13OverflowTupleNtNtB4_5tuple10TupleTrait17get_version_value
FN:19,_RNvXNtCsgKx49t2KK1I_5digby14overflow_tupleNtB2_13OverflowTupleNtNtB4_5tuple10TupleTrait7get_key
FN:24,_RNvXNtCsgKx49t2KK1I_5digby14overflow_tupleNtB2_13OverflowTupleNtNtB4_5tuple10TupleTrait9get_value
FNDA:2,_RNvMs_NtCskvx6Wg1ZZUs_5digby14overflow_tupleNtB4_13OverflowTuple10from_bytes
FNDA:7,_RNvMs_NtCskvx6Wg1ZZUs_5digby14overflow_tupleNtB4_13OverflowTuple3new
FNDA:3,_RNvXNtCskvx6Wg1ZZUs_5digby14overflow_tupleNtB2_13OverflowTupleNtNtB4_5tuple10TupleTrait11get_version
FNDA:0,_RNvXNtCskvx6Wg1ZZUs_5digby14overflow_tupleNtB2_13OverflowTupleNtNtB4_5tuple10TupleTrait12get_overflow
FNDA:5,_RNvXNtCskvx6Wg1ZZUs_5digby14overflow_tupleNtB2_13OverflowTupleNtNtB4_5tuple10TupleTrait13get_byte_size
FNDA:7,_RNvXNtCskvx6Wg1ZZUs_5digby14overflow_tupleNtB2_13OverflowTupleNtNtB4_5tuple10TupleTrait14get_serialized
FNDA:1,_RNvXNtCskvx6Wg1ZZUs_5digby14overflow_tupleNtB2_13OverflowTupleNtNtB4_5tuple10TupleTrait17get_version_value
FNDA:3,_RNvXNtCskvx6Wg1ZZUs_5digby14overflow_tupleNtB2_13OverflowTupleNtNtB4_5tuple10TupleTrait7get_key
FNDA:3,_RNvXNtCskvx6Wg1ZZUs_5digby14overflow_tupleNtB2_13OverflowTupleNtNtB4_5tuple10TupleTrait9get_value
FNDA:1,_RNvNtNtCskvx6Wg1ZZUs_5digby14overflow_tuple5testss_10test_tuple
FNDA:1,_RNvNtNtCskvx6Wg1ZZUs_5digby14overflow_tuple5testss_21test_tuple_from_bytes
FNDA:35,_RNvMs_NtCsgKx49t2KK1I_5digby14overflow_tupleNtB4_13OverflowTuple10from_bytes
FNDA:35,_RNvMs_NtCsgKx49t2KK1I_5digby14overflow_tupleNtB4_13OverflowTuple3new
FNDA:0,_RNvXNtCsgKx49t2KK1I_5digby14overflow_tupleNtB2_13OverflowTupleNtNtB4_5tuple10TupleTrait11get_version
FNDA:70,_RNvXNtCsgKx49t2KK1I_5digby14overflow_tupleNtB2_13OverflowTupleNtNtB4_5tuple10TupleTrait12get_overflow
FNDA:35,_RNvXNtCsgKx49t2KK1I_5digby14overflow_tupleNtB2_13OverflowTupleNtNtB4_5tuple10TupleTrait13get_byte_size
FNDA:35,_RNvXNtCsgKx49t2KK1I_5digby14overflow_tupleNtB2_13OverflowTupleNtNtB4_5tuple10TupleTrait14get_serialized
FNDA:0,_RNvXNtCsgKx49t2KK1I_5digby14overflow_tupleNtB2_13OverflowTupleNtNtB4_5tuple10TupleTrait17get_version_value
FNDA:35,_RNvXNtCsgKx49t2KK1I_5digby14overflow_tupleNtB2_13OverflowTupleNtNtB4_5tuple10TupleTrait7get_key
FNDA:35,_RNvXNtCsgKx49t2KK1I_5digby14overflow_tupleNtB2_13OverflowTupleNtNtB4_5tuple10TupleTrait9get_value
FNF:11
FNH:11
DA:19,38
DA:20,38
DA:21,38
DA:22,38
DA:24,38
DA:25,38
DA:26,38
DA:27,38
DA:29,3
DA:30,3
DA:31,3
DA:32,3
DA:34,1
DA:35,1
DA:36,1
DA:37,1
DA:39,42
DA:40,42
DA:41,42
DA:43,40
DA:44,40
DA:45,40
DA:47,70
DA:48,70
DA:49,70
DA:50,70
DA:52,70
DA:53,70
DA:57,42
DA:58,42
DA:59,42
DA:60,42
DA:61,42
DA:62,42
DA:63,42
DA:64,42
DA:65,42
DA:66,42
DA:68,37
DA:69,37
DA:70,37
DA:78,1
DA:79,1
DA:80,1
DA:81,1
DA:83,1
DA:84,1
DA:85,1
DA:86,1
DA:87,1
DA:88,1
DA:89,1
DA:90,1
DA:92,1
DA:95,1
DA:96,1
DA:97,1
DA:98,1
DA:100,1
DA:101,1
DA:103,1
DA:104,1
DA:105,1
DA:106,1
BRF:0
BRH:0
LF:64
LH:64
end_of_record
SF:/workspaces/digby/src/page.rs
FN:105,_RNvMs0_NtCskvx6Wg1ZZUs_5digby4pageNtB5_4Page10from_bytes
FN:73,_RNvXs_NtCskvx6Wg1ZZUs_5digby4pageNtB4_4PageNtB4_9PageTrait8get_page
FN:141,_RNvNtNtCskvx6Wg1ZZUs_5digby4page5testss_18test_page_creation
FN:89,_RNvMs0_NtCskvx6Wg1ZZUs_5digby4pageNtB5_4Page10create_new
FN:117,_RNvMs0_NtCskvx6Wg1ZZUs_5digby4pageNtB5_4Page15get_block_bytes
FN:113,_RNvMs0_NtCskvx6Wg1ZZUs_5digby4pageNtB5_4Page18get_page_bytes_mut
FN:121,_RNvMs0_NtCskvx6Wg1ZZUs_5digby4pageNtB5_4Page19get_block_bytes_mut
FN:97,_RNvMs0_NtCskvx6Wg1ZZUs_5digby4pageNtB5_4Page3new
FN:125,_RNvMs0_NtCskvx6Wg1ZZUs_5digby4pageNtB5_4Page8get_type
FN:129,_RNvMs0_NtCskvx6Wg1ZZUs_5digby4pageNtB5_4Page8set_type
FN:28,_RNvXNtCskvx6Wg1ZZUs_5digby4pageNtB2_8PageTypeINtNtCs1X3mq3Q8b4t_4core7convert7TryFromhE8try_from
FN:77,_RNvXs_NtCskvx6Wg1ZZUs_5digby4pageNtB4_4PageNtB4_9PageTrait11get_version
FN:81,_RNvXs_NtCskvx6Wg1ZZUs_5digby4pageNtB4_4PageNtB4_9PageTrait11set_version
FN:59,_RNvXs_NtCskvx6Wg1ZZUs_5digby4pageNtB4_4PageNtB4_9PageTrait14get_page_bytes
FN:63,_RNvXs_NtCskvx6Wg1ZZUs_5digby4pageNtB4_4PageNtB4_9PageTrait15get_page_number
FN:69,_RNvXs_NtCskvx6Wg1ZZUs_5digby4pageNtB4_4PageNtB4_9PageTrait15set_page_number
FN:89,_RNvMs0_NtCsgKx49t2KK1I_5digby4pageNtB5_4Page10create_new
FN:105,_RNvMs0_NtCsgKx49t2KK1I_5digby4pageNtB5_4Page10from_bytes
FN:117,_RNvMs0_NtCsgKx49t2KK1I_5digby4pageNtB5_4Page15get_block_bytes
FN:113,_RNvMs0_NtCsgKx49t2KK1I_5digby4pageNtB5_4Page18get_page_bytes_mut
FN:121,_RNvMs0_NtCsgKx49t2KK1I_5digby4pageNtB5_4Page19get_block_bytes_mut
FN:97,_RNvMs0_NtCsgKx49t2KK1I_5digby4pageNtB5_4Page3new
FN:125,_RNvMs0_NtCsgKx49t2KK1I_5digby4pageNtB5_4Page8get_type
FN:129,_RNvMs0_NtCsgKx49t2KK1I_5digby4pageNtB5_4Page8set_type
FN:28,_RNvXNtCsgKx49t2KK1I_5digby4pageNtB2_8PageTypeINtNtCs1X3mq3Q8b4t_4core7convert7TryFromhE8try_from
FN:77,_RNvXs_NtCsgKx49t2KK1I_5digby4pageNtB4_4PageNtB4_9PageTrait11get_version
FN:81,_RNvXs_NtCsgKx49t2KK1I_5digby4pageNtB4_4PageNtB4_9PageTrait11set_version
FN:59,_RNvXs_NtCsgKx49t2KK1I_5digby4pageNtB4_4PageNtB4_9PageTrait14get_page_bytes
FN:63,_RNvXs_NtCsgKx49t2KK1I_5digby4pageNtB4_4PageNtB4_9PageTrait15get_page_number
FN:69,_RNvXs_NtCsgKx49t2KK1I_5digby4pageNtB4_4PageNtB4_9PageTrait15set_page_number
FN:73,_RNvXs_NtCsgKx49t2KK1I_5digby4pageNtB4_4PageNtB4_9PageTrait8get_page
FNDA:0,_RNvMs0_NtCskvx6Wg1ZZUs_5digby4pageNtB5_4Page10from_bytes
FNDA:0,_RNvXs_NtCskvx6Wg1ZZUs_5digby4pageNtB4_4PageNtB4_9PageTrait8get_page
FNDA:1,_RNvNtNtCskvx6Wg1ZZUs_5digby4page5testss_18test_page_creation
FNDA:155843093,_RNvMs0_NtCskvx6Wg1ZZUs_5digby4pageNtB5_4Page10create_new
FNDA:156371347,_RNvMs0_NtCskvx6Wg1ZZUs_5digby4pageNtB5_4Page15get_block_bytes
FNDA:4850309,_RNvMs0_NtCskvx6Wg1ZZUs_5digby4pageNtB5_4Page18get_page_bytes_mut
FNDA:156371363,_RNvMs0_NtCskvx6Wg1ZZUs_5digby4pageNtB5_4Page19get_block_bytes_mut
FNDA:80024,_RNvMs0_NtCskvx6Wg1ZZUs_5digby4pageNtB5_4Page3new
FNDA:277700937,_RNvMs0_NtCskvx6Wg1ZZUs_5digby4pageNtB5_4Page8get_type
FNDA:132518,_RNvMs0_NtCskvx6Wg1ZZUs_5digby4pageNtB5_4Page8set_type
FNDA:277700937,_RNvXNtCskvx6Wg1ZZUs_5digby4pageNtB2_8PageTypeINtNtCs1X3mq3Q8b4t_4core7convert7TryFromhE8try_from
FNDA:33912273,_RNvXs_NtCskvx6Wg1ZZUs_5digby4pageNtB4_4PageNtB4_9PageTrait11get_version
FNDA:588986,_RNvXs_NtCskvx6Wg1ZZUs_5digby4pageNtB4_4PageNtB4_9PageTrait11set_version
FNDA:2202126012,_RNvXs_NtCskvx6Wg1ZZUs_5digby4pageNtB4_4PageNtB4_9PageTrait14get_page_bytes
FNDA:1487022,_RNvXs_NtCskvx6Wg1ZZUs_5digby4pageNtB4_4PageNtB4_9PageTrait15get_page_number
FNDA:641504,_RNvXs_NtCskvx6Wg1ZZUs_5digby4pageNtB4_4PageNtB4_9PageTrait15set_page_number
FNDA:1001,_RNvMs0_NtCsgKx49t2KK1I_5digby4pageNtB5_4Page10create_new
FNDA:0,_RNvMs0_NtCsgKx49t2KK1I_5digby4pageNtB5_4Page10from_bytes
FNDA:1337,_RNvMs0_NtCsgKx49t2KK1I_5digby4pageNtB5_4Page15get_block_bytes
FNDA:2320,_RNvMs0_NtCsgKx49t2KK1I_5digby4pageNtB5_4Page18get_page_bytes_mut
FNDA:1337,_RNvMs0_NtCsgKx49t2KK1I_5digby4pageNtB5_4Page19get_block_bytes_mut
FNDA:167,_RNvMs0_NtCsgKx49t2KK1I_5digby4pageNtB5_4Page3new
FNDA:1018,_RNvMs0_NtCsgKx49t2KK1I_5digby4pageNtB5_4Page8get_type
FNDA:377,_RNvMs0_NtCsgKx49t2KK1I_5digby4pageNtB5_4Page8set_type
FNDA:1018,_RNvXNtCsgKx49t2KK1I_5digby4pageNtB2_8PageTypeINtNtCs1X3mq3Q8b4t_4core7convert7TryFromhE8try_from
FNDA:468,_RNvXs_NtCsgKx49t2KK1I_5digby4pageNtB4_4PageNtB4_9PageTrait11get_version
FNDA:330,_RNvXs_NtCsgKx49t2KK1I_5digby4pageNtB4_4PageNtB4_9PageTrait11set_version
FNDA:9008,_RNvXs_NtCsgKx49t2KK1I_5digby4pageNtB4_4PageNtB4_9PageTrait14get_page_bytes
FNDA:658,_RNvXs_NtCsgKx49t2KK1I_5digby4pageNtB4_4PageNtB4_9PageTrait15get_page_number
FNDA:553,_RNvXs_NtCsgKx49t2KK1I_5digby4pageNtB4_4PageNtB4_9PageTrait15set_page_number
FNDA:0,_RNvXs_NtCsgKx49t2KK1I_5digby4pageNtB4_4PageNtB4_9PageTrait8get_page
FNF:16
FNH:14
DA:28,277701955
DA:29,277701955
DA:30,1
DA:31,43
DA:32,33793508
DA:33,162
DA:34,86924
DA:35,33834311
DA:36,209987006
DA:37,0
DA:39,277701955
DA:59,2202135020
DA:60,2202135020
DA:61,2202135020
DA:63,1487680
DA:64,1487680
DA:65,1487680
DA:66,1487680
DA:67,1487680
DA:69,642057
DA:70,642057
DA:71,642057
DA:73,0
DA:74,0
DA:75,0
DA:77,33912741
DA:78,33912741
DA:79,33912741
DA:81,589316
DA:82,589316
DA:83,589316
DA:84,589316
DA:85,589316
DA:89,155844094
DA:90,155844094
DA:91,155844094
DA:92,155844094
DA:93,155844094
DA:94,155844094
DA:95,155844094
DA:97,80191
DA:98,80191
DA:99,80191
DA:100,80191
DA:101,80191
DA:102,80191
DA:103,80191
DA:105,0
DA:106,0
DA:107,0
DA:108,0
DA:109,0
DA:110,0
DA:111,0
DA:113,4852629
DA:114,4852629
DA:115,4852629
DA:117,156372684
DA:118,156372684
DA:119,156372684
DA:121,156372700
DA:122,156372700
DA:123,156372700
DA:125,277701955
DA:126,277701955
DA:127,277701955
DA:129,132895
DA:130,132895
DA:131,132895
DA:132,132895
DA:133,132895
DA:141,1
DA:142,1
DA:143,1
DA:144,1
DA:145,1
DA:146,1
DA:147,1
DA:148,1
DA:149,1
BRF:0
BRH:0
LF:80
LH:69
end_of_record
SF:/workspaces/digby/src/page_cache.rs
FN:19,_RNvMNtCskvx6Wg1ZZUs_5digby10page_cacheNtB2_9PageCache15get_page_config
FN:25,_RNvMNtCskvx6Wg1ZZUs_5digby10page_cacheNtB2_9PageCache19generate_free_pages
FN:42,_RNvMNtCskvx6Wg1ZZUs_5digby10page_cacheNtB2_9PageCache20get_total_page_count
FN:15,_RNvMNtCskvx6Wg1ZZUs_5digby10page_cacheNtB2_9PageCache3new
FN:34,_RNvMNtCskvx6Wg1ZZUs_5digby10page_cacheNtB2_9PageCache8get_page
FN:38,_RNvMNtCskvx6Wg1ZZUs_5digby10page_cacheNtB2_9PageCache8put_page
FN:50,_RNvMNtCskvx6Wg1ZZUs_5digby10page_cacheNtB2_9PageCache8sync_all
FN:46,_RNvMNtCskvx6Wg1ZZUs_5digby10page_cacheNtB2_9PageCache9sync_data
FN:66,_RNvNtNtCskvx6Wg1ZZUs_5digby10page_cache5testss_26test_page_cache_read_write
FN:19,_RNvMNtCsgKx49t2KK1I_5digby10page_cacheNtB2_9PageCache15get_page_config
FN:25,_RNvMNtCsgKx49t2KK1I_5digby10page_cacheNtB2_9PageCache19generate_free_pages
FN:42,_RNvMNtCsgKx49t2KK1I_5digby10page_cacheNtB2_9PageCache20get_total_page_count
FN:15,_RNvMNtCsgKx49t2KK1I_5digby10page_cacheNtB2_9PageCache3new
FN:34,_RNvMNtCsgKx49t2KK1I_5digby10page_cacheNtB2_9PageCache8get_page
FN:38,_RNvMNtCsgKx49t2KK1I_5digby10page_cacheNtB2_9PageCache8put_page
FN:50,_RNvMNtCsgKx49t2KK1I_5digby10page_cacheNtB2_9PageCache8sync_all
FN:46,_RNvMNtCsgKx49t2KK1I_5digby10page_cacheNtB2_9PageCache9sync_data
FNDA:69769,_RNvMNtCskvx6Wg1ZZUs_5digby10page_cacheNtB2_9PageCache15get_page_config
FNDA:23324,_RNvMNtCskvx6Wg1ZZUs_5digby10page_cacheNtB2_9PageCache19generate_free_pages
FNDA:4,_RNvMNtCskvx6Wg1ZZUs_5digby10page_cacheNtB2_9PageCache20get_total_page_count
FNDA:46,_RNvMNtCskvx6Wg1ZZUs_5digby10page_cacheNtB2_9PageCache3new
FNDA:155790595,_RNvMNtCskvx6Wg1ZZUs_5digby10page_cacheNtB2_9PageCache8get_page
FNDA:528239,_RNvMNtCskvx6Wg1ZZUs_5digby10page_cacheNtB2_9PageCache8put_page
FNDA:40,_RNvMNtCskvx6Wg1ZZUs_5digby10page_cacheNtB2_9PageCache8sync_all
FNDA:118872,_RNvMNtCskvx6Wg1ZZUs_5digby10page_cacheNtB2_9PageCache9sync_data
FNDA:1,_RNvNtNtCskvx6Wg1ZZUs_5digby10page_cache5testss_26test_page_cache_read_write
FNDA:213,_RNvMNtCsgKx49t2KK1I_5digby10page_cacheNtB2_9PageCache15get_page_config
FNDA:23,_RNvMNtCsgKx49t2KK1I_5digby10page_cacheNtB2_9PageCache19generate_free_pages
FNDA:0,_RNvMNtCsgKx49t2KK1I_5digby10page_cacheNtB2_9PageCache20get_total_page_count
FNDA:25,_RNvMNtCsgKx49t2KK1I_5digby10page_cacheNtB2_9PageCache3new
FNDA:791,_RNvMNtCsgKx49t2KK1I_5digby10page_cacheNtB2_9PageCache8get_page
FNDA:336,_RNvMNtCsgKx49t2KK1I_5digby10page_cacheNtB2_9PageCache8put_page
FNDA:25,_RNvMNtCsgKx49t2KK1I_5digby10page_cacheNtB2_9PageCache8sync_all
FNDA:126,_RNvMNtCsgKx49t2KK1I_5digby10page_cacheNtB2_9PageCache9sync_data
FNF:9
FNH:9
DA:15,71
DA:16,71
DA:17,71
DA:19,69982
DA:20,69982
DA:21,69982
DA:25,23347
DA:26,23347
DA:27,23347
DA:34,155791386
DA:35,155791386
DA:36,155791386
DA:38,528575
DA:39,528575
DA:40,528575
DA:42,4
DA:43,4
DA:44,4
DA:46,118998
DA:47,118998
DA:48,118998
DA:50,65
DA:51,65
DA:52,65
DA:66,1
DA:67,1
DA:68,1
DA:69,1
DA:70,1
DA:71,1
DA:74,1
DA:75,1
DA:76,1
DA:77,1
DA:78,1
DA:79,1
DA:81,1
DA:82,1
DA:83,1
DA:84,1
BRF:0
BRH:0
LF:40
LH:40
end_of_record
SF:/workspaces/digby/src/store_tuple_processor.rs
FN:36,_RNvMNtCskvx6Wg1ZZUs_5digby21store_tuple_processorNtB2_19StoreTupleProcessor11store_tuple
FN:70,_RNvMNtCskvx6Wg1ZZUs_5digby21store_tuple_processorNtB2_19StoreTupleProcessor16store_tuple_tree
FN:198,_RNvMNtCskvx6Wg1ZZUs_5digby21store_tuple_processorNtB2_19StoreTupleProcessor16write_leaf_pages
FN:167,_RNvMNtCskvx6Wg1ZZUs_5digby21store_tuple_processorNtB2_19StoreTupleProcessor20write_tree_dir_pages
FN:224,_RNvMNtCskvx6Wg1ZZUs_5digby21store_tuple_processorNtB2_19StoreTupleProcessor28store_tuple_tree_root_single
FN:15,_RNvMNtCskvx6Wg1ZZUs_5digby21store_tuple_processorNtB2_19StoreTupleProcessor9get_tuple
FN:415,_RNvNtNtCskvx6Wg1ZZUs_5digby21store_tuple_processor5testss_23test_add_multiple_pages
FN:297,_RNvNtNtCskvx6Wg1ZZUs_5digby21store_tuple_processor5testss_23test_root_is_leaf_add_1
FN:349,_RNvNtNtCskvx6Wg1ZZUs_5digby21store_tuple_processor5testss_30test_root_is_leaf_add_multiple
FN:211,_RNCNvMNtCskvx6Wg1ZZUs_5digby21store_tuple_processorNtB4_19StoreTupleProcessor16write_leaf_pages0B6_
FN:269,_RNCNvMNtCskvx6Wg1ZZUs_5digby21store_tuple_processorNtB4_19StoreTupleProcessor28store_tuple_tree_root_single0B6_
FN:211,_RNCNvMNtCsgKx49t2KK1I_5digby21store_tuple_processorNtB4_19StoreTupleProcessor16write_leaf_pages0B6_
FN:269,_RNCNvMNtCsgKx49t2KK1I_5digby21store_tuple_processorNtB4_19StoreTupleProcessor28store_tuple_tree_root_single0B6_
FN:36,_RNvMNtCsgKx49t2KK1I_5digby21store_tuple_processorNtB2_19StoreTupleProcessor11store_tuple
FN:70,_RNvMNtCsgKx49t2KK1I_5digby21store_tuple_processorNtB2_19StoreTupleProcessor16store_tuple_tree
FN:198,_RNvMNtCsgKx49t2KK1I_5digby21store_tuple_processorNtB2_19StoreTupleProcessor16write_leaf_pages
FN:167,_RNvMNtCsgKx49t2KK1I_5digby21store_tuple_processorNtB2_19StoreTupleProcessor20write_tree_dir_pages
FN:224,_RNvMNtCsgKx49t2KK1I_5digby21store_tuple_processorNtB2_19StoreTupleProcessor28store_tuple_tree_root_single
FN:15,_RNvMNtCsgKx49t2KK1I_5digby21store_tuple_processorNtB2_19StoreTupleProcessor9get_tuple
FNDA:45037,_RNvMNtCskvx6Wg1ZZUs_5digby21store_tuple_processorNtB2_19StoreTupleProcessor11store_tuple
FNDA:44668,_RNvMNtCskvx6Wg1ZZUs_5digby21store_tuple_processorNtB2_19StoreTupleProcessor16store_tuple_tree
FNDA:44668,_RNvMNtCskvx6Wg1ZZUs_5digby21store_tuple_processorNtB2_19StoreTupleProcessor16write_leaf_pages
FNDA:164236,_RNvMNtCskvx6Wg1ZZUs_5digby21store_tuple_processorNtB2_19StoreTupleProcessor20write_tree_dir_pages
FNDA:369,_RNvMNtCskvx6Wg1ZZUs_5digby21store_tuple_processorNtB2_19StoreTupleProcessor28store_tuple_tree_root_single
FNDA:16847131,_RNvMNtCskvx6Wg1ZZUs_5digby21store_tuple_processorNtB2_19StoreTupleProcessor9get_tuple
FNDA:1,_RNvNtNtCskvx6Wg1ZZUs_5digby21store_tuple_processor5testss_23test_add_multiple_pages
FNDA:1,_RNvNtNtCskvx6Wg1ZZUs_5digby21store_tuple_processor5testss_23test_root_is_leaf_add_1
FNDA:1,_RNvNtNtCskvx6Wg1ZZUs_5digby21store_tuple_processor5testss_30test_root_is_leaf_add_multiple
FNDA:44674,_RNCNvMNtCskvx6Wg1ZZUs_5digby21store_tuple_processorNtB4_19StoreTupleProcessor16write_leaf_pages0B6_
FNDA:9,_RNCNvMNtCskvx6Wg1ZZUs_5digby21store_tuple_processorNtB4_19StoreTupleProcessor28store_tuple_tree_root_single0B6_
FNDA:18,_RNCNvMNtCsgKx49t2KK1I_5digby21store_tuple_processorNtB4_19StoreTupleProcessor16write_leaf_pages0B6_
FNDA:1,_RNCNvMNtCsgKx49t2KK1I_5digby21store_tuple_processorNtB4_19StoreTupleProcessor28store_tuple_tree_root_single0B6_
FNDA:50,_RNvMNtCsgKx49t2KK1I_5digby21store_tuple_processorNtB2_19StoreTupleProcessor11store_tuple
FNDA:18,_RNvMNtCsgKx49t2KK1I_5digby21store_tuple_processorNtB2_19StoreTupleProcessor16store_tuple_tree
FNDA:18,_RNvMNtCsgKx49t2KK1I_5digby21store_tuple_processorNtB2_19StoreTupleProcessor16write_leaf_pages
FNDA:19,_RNvMNtCsgKx49t2KK1I_5digby21store_tuple_processorNtB2_19StoreTupleProcessor20write_tree_dir_pages
FNDA:32,_RNvMNtCsgKx49t2KK1I_5digby21store_tuple_processorNtB2_19StoreTupleProcessor28store_tuple_tree_root_single
FNDA:113,_RNvMNtCsgKx49t2KK1I_5digby21store_tuple_processorNtB2_19StoreTupleProcessor9get_tuple
FNF:11
FNH:11
DA:15,16847244
DA:17,16847244
DA:22,121520823
DA:23,16847244
DA:24,16847244
DA:25,104673579
DA:28,104673579
DA:29,104673579
DA:31,16847244
DA:36,45087
DA:37,45087
DA:38,45087
DA:39,45087
DA:40,45087
DA:41,45087
DA:42,45087
DA:43,45087
DA:45,401
DA:46,401
DA:47,401
DA:48,401
DA:49,401
DA:50,401
DA:51,401
DA:53,44686
DA:56,44686
DA:57,44686
DA:58,44686
DA:59,44686
DA:60,44686
DA:61,44686
DA:62,44686
DA:64,45087
DA:70,44686
DA:71,44686
DA:72,44686
DA:73,44686
DA:74,44686
DA:75,44686
DA:76,44686
DA:77,44686
DA:80,44686
DA:83,44686
DA:87,164209
DA:88,164209
DA:89,164209
DA:90,164209
DA:91,44686
DA:92,44686
DA:93,119523
DA:94,119523
DA:100,44686
DA:103,44686
DA:104,44686
DA:105,44686
DA:106,44686
DA:110,44686
DA:111,44686
DA:112,44686
DA:113,44686
DA:114,44686
DA:118,44686
DA:121,44686
DA:123,44686
DA:124,44686
DA:125,44686
DA:126,44686
DA:127,44686
DA:131,164209
DA:132,119523
DA:133,119523
DA:134,119523
DA:135,119523
DA:136,119523
DA:137,119523
DA:138,119523
DA:139,119523
DA:140,119523
DA:143,44686
DA:144,44650
DA:145,36
DA:150,36
DA:152,36
DA:154,36
DA:155,36
DA:156,36
DA:157,36
DA:158,36
DA:160,36
DA:161,36
DA:162,44686
DA:167,164255
DA:168,164255
DA:169,164255
DA:170,164255
DA:171,164255
DA:172,164255
DA:175,164255
DA:177,164255
DA:178,337757
DA:179,173502
DA:181,164255
DA:182,164255
DA:183,164255
DA:187,9247
DA:189,173502
DA:191,173502
DA:193,164255
DA:194,164255
DA:198,44686
DA:199,44686
DA:200,44686
DA:201,44686
DA:202,44686
DA:203,44686
DA:204,44686
DA:206,44686
DA:207,110446
DA:209,65760
DA:210,65760
DA:211,65760
DA:212,65760
DA:213,65760
DA:215,65760
DA:217,44686
DA:218,44686
DA:224,401
DA:225,401
DA:226,401
DA:227,401
DA:228,401
DA:229,401
DA:230,401
DA:232,401
DA:235,401
DA:236,401
DA:237,401
DA:238,401
DA:242,401
DA:243,401
DA:244,401
DA:245,401
DA:246,401
DA:248,401
DA:250,391
DA:251,391
DA:252,391
DA:253,391
DA:254,391
DA:255,391
DA:257,391
DA:259,391
DA:260,10
DA:264,10
DA:265,30
DA:267,20
DA:268,20
DA:269,20
DA:270,20
DA:271,20
DA:273,20
DA:276,10
DA:278,10
DA:280,10
DA:281,10
DA:282,10
DA:283,10
DA:284,10
DA:285,10
DA:287,10
DA:288,10
DA:289,401
DA:297,1
DA:298,1
DA:299,1
DA:300,1
DA:301,1
DA:302,1
DA:303,1
DA:304,1
DA:305,1
DA:307,1
DA:308,1
DA:309,1
DA:310,1
DA:311,1
DA:313,1
DA:314,1
DA:315,1
DA:316,1
DA:318,1
DA:319,1
DA:320,1
DA:321,1
DA:323,1
DA:324,1
DA:325,1
DA:326,1
DA:329,1
DA:331,1
DA:332,1
DA:333,1
DA:334,1
DA:336,1
DA:337,1
DA:338,1
DA:339,1
DA:340,1
DA:341,1
DA:343,1
DA:345,1
DA:346,1
DA:349,1
DA:350,1
DA:351,1
DA:352,1
DA:353,1
DA:354,1
DA:355,1
DA:356,1
DA:357,1
DA:359,1
DA:360,1
DA:361,1
DA:362,1
DA:363,1
DA:365,1
DA:366,1
DA:367,1
DA:368,1
DA:370,1
DA:371,1
DA:372,1
DA:373,1
DA:375,1
DA:376,194
DA:377,194
DA:378,194
DA:379,194
DA:380,194
DA:381,194
DA:382,194
DA:384,194
DA:385,194
DA:386,194
DA:387,194
DA:388,194
DA:390,194
DA:391,194
DA:392,194
DA:393,194
DA:394,194
DA:395,194
DA:396,194
DA:397,194
DA:398,194
DA:399,388
DA:400,194
DA:401,194
DA:402,194
DA:403,1
DA:404,193
DA:406,1
DA:408,1
DA:410,1
DA:411,1
DA:412,1
DA:415,1
DA:416,1
DA:417,1
DA:418,1
DA:419,1
DA:420,1
DA:421,1
DA:422,1
DA:423,1
DA:425,1
DA:426,1
DA:427,1
DA:428,1
DA:429,1
DA:431,1
DA:432,1
DA:433,1
DA:434,1
DA:436,1
DA:437,1
DA:438,1
DA:439,1
DA:441,20001
DA:442,20000
DA:443,20000
DA:444,20000
DA:445,20000
DA:446,20000
DA:448,20000
DA:449,20000
DA:450,20000
DA:451,20000
DA:452,20000
DA:454,20000
DA:455,20000
DA:456,20000
DA:457,20000
DA:458,20000
DA:459,20000
DA:460,20000
DA:461,20000
DA:462,20000
DA:463,40000
DA:464,20000
DA:465,20000
DA:466,20000
DA:469,1
DA:470,1
DA:471,1
DA:473,1
DA:474,1
DA:475,1
DA:476,1
DA:477,1
DA:479,1
DA:480,1
DA:481,1
DA:482,1
BRF:0
BRH:0
LF:327
LH:327
end_of_record
SF:/workspaces/digby/src/tree_delete_handler.rs
FN:9,_RNvMNtCskvx6Wg1ZZUs_5digby19tree_delete_handlerNtB2_17TreeDeleteHandler10delete_key
FN:181,_RNvMNtCskvx6Wg1ZZUs_5digby19tree_delete_handlerNtB2_17TreeDeleteHandler13fix_dir_stack
FN:140,_RNvMNtCskvx6Wg1ZZUs_5digby19tree_delete_handlerNtB2_17TreeDeleteHandler18fix_stack_page_del
FN:240,_RNvMNtCskvx6Wg1ZZUs_5digby19tree_delete_handlerNtB2_17TreeDeleteHandler20delete_key_from_root
FN:38,_RNvMNtCskvx6Wg1ZZUs_5digby19tree_delete_handlerNtB2_17TreeDeleteHandler20delete_key_from_tree
FN:212,_RNvMNtCskvx6Wg1ZZUs_5digby19tree_delete_handlerNtB2_17TreeDeleteHandler21fix_stack_no_page_del
FN:107,_RNvMNtCskvx6Wg1ZZUs_5digby19tree_delete_handlerNtB2_17TreeDeleteHandler9fix_stack
FN:9,_RNvMNtCsgKx49t2KK1I_5digby19tree_delete_handlerNtB2_17TreeDeleteHandler10delete_key
FN:181,_RNvMNtCsgKx49t2KK1I_5digby19tree_delete_handlerNtB2_17TreeDeleteHandler13fix_dir_stack
FN:140,_RNvMNtCsgKx49t2KK1I_5digby19tree_delete_handlerNtB2_17TreeDeleteHandler18fix_stack_page_del
FN:240,_RNvMNtCsgKx49t2KK1I_5digby19tree_delete_handlerNtB2_17TreeDeleteHandler20delete_key_from_root
FN:38,_RNvMNtCsgKx49t2KK1I_5digby19tree_delete_handlerNtB2_17TreeDeleteHandler20delete_key_from_tree
FN:212,_RNvMNtCsgKx49t2KK1I_5digby19tree_delete_handlerNtB2_17TreeDeleteHandler21fix_stack_no_page_del
FN:107,_RNvMNtCsgKx49t2KK1I_5digby19tree_delete_handlerNtB2_17TreeDeleteHandler9fix_stack
FNDA:24582,_RNvMNtCskvx6Wg1ZZUs_5digby19tree_delete_handlerNtB2_17TreeDeleteHandler10delete_key
FNDA:20661,_RNvMNtCskvx6Wg1ZZUs_5digby19tree_delete_handlerNtB2_17TreeDeleteHandler13fix_dir_stack
FNDA:20667,_RNvMNtCskvx6Wg1ZZUs_5digby19tree_delete_handlerNtB2_17TreeDeleteHandler18fix_stack_page_del
FNDA:2,_RNvMNtCskvx6Wg1ZZUs_5digby19tree_delete_handlerNtB2_17TreeDeleteHandler20delete_key_from_root
FNDA:24580,_RNvMNtCskvx6Wg1ZZUs_5digby19tree_delete_handlerNtB2_17TreeDeleteHandler20delete_key_from_tree
FNDA:3913,_RNvMNtCskvx6Wg1ZZUs_5digby19tree_delete_handlerNtB2_17TreeDeleteHandler21fix_stack_no_page_del
FNDA:24580,_RNvMNtCskvx6Wg1ZZUs_5digby19tree_delete_handlerNtB2_17TreeDeleteHandler9fix_stack
FNDA:6,_RNvMNtCsgKx49t2KK1I_5digby19tree_delete_handlerNtB2_17TreeDeleteHandler10delete_key
FNDA:0,_RNvMNtCsgKx49t2KK1I_5digby19tree_delete_handlerNtB2_17TreeDeleteHandler13fix_dir_stack
FNDA:0,_RNvMNtCsgKx49t2KK1I_5digby19tree_delete_handlerNtB2_17TreeDeleteHandler18fix_stack_page_del
FNDA:6,_RNvMNtCsgKx49t2KK1I_5digby19tree_delete_handlerNtB2_17TreeDeleteHandler20delete_key_from_root
FNDA:0,_RNvMNtCsgKx49t2KK1I_5digby19tree_delete_handlerNtB2_17TreeDeleteHandler20delete_key_from_tree
FNDA:0,_RNvMNtCsgKx49t2KK1I_5digby19tree_delete_handlerNtB2_17TreeDeleteHandler21fix_stack_no_page_del
FNDA:0,_RNvMNtCsgKx49t2KK1I_5digby19tree_delete_handlerNtB2_17TreeDeleteHandler9fix_stack
FNF:7
FNH:7
DA:9,24588
DA:10,24588
DA:11,24588
DA:12,24588
DA:13,24588
DA:14,24588
DA:15,24588
DA:16,24588
DA:18,8
DA:19,8
DA:20,8
DA:21,8
DA:22,8
DA:23,8
DA:24,8
DA:26,24580
DA:28,24580
DA:29,24580
DA:30,24580
DA:31,24580
DA:32,24580
DA:33,24580
DA:34,24580
DA:36,24588
DA:38,24580
DA:39,24580
DA:40,24580
DA:41,24580
DA:42,24580
DA:43,24580
DA:44,24580
DA:45,24580
DA:46,24580
DA:49,24580
DA:55,155673
DA:56,155673
DA:57,155673
DA:58,155673
DA:59,24580
DA:60,24580
DA:61,131093
DA:62,131093
DA:65,24580
DA:66,24580
DA:67,0
DA:68,24580
DA:71,24580
DA:72,24580
DA:73,0
DA:74,0
DA:75,0
DA:76,0
DA:77,0
DA:78,0
DA:79,24580
DA:82,24580
DA:84,24580
DA:85,24580
DA:86,24580
DA:87,3913
DA:88,3913
DA:89,3913
DA:90,3913
DA:91,20667
DA:95,24580
DA:96,24580
DA:97,24580
DA:98,24580
DA:99,24580
DA:100,24580
DA:101,24580
DA:102,24580
DA:104,24580
DA:105,24580
DA:107,24580
DA:108,24580
DA:109,24580
DA:110,24580
DA:111,24580
DA:112,24580
DA:113,24580
DA:114,24580
DA:115,24580
DA:118,24580
DA:119,3913
DA:120,3913
DA:121,3913
DA:122,3913
DA:123,3913
DA:124,3913
DA:125,3913
DA:127,20667
DA:130,20667
DA:131,20667
DA:132,20667
DA:133,20667
DA:134,20667
DA:135,20667
DA:136,20667
DA:138,24580
DA:140,20667
DA:141,20667
DA:142,20667
DA:143,20667
DA:144,20667
DA:145,20667
DA:146,20667
DA:147,20667
DA:148,20667
DA:150,29916
DA:151,29916
DA:153,6
DA:154,29910
DA:155,29910
DA:156,29910
DA:157,29910
DA:158,9249
DA:159,9249
DA:160,9249
DA:163,20661
DA:164,20661
DA:169,20667
DA:170,6
DA:171,6
DA:172,6
DA:173,6
DA:174,6
DA:175,20661
DA:178,20661
DA:179,20667
DA:181,20661
DA:182,20661
DA:183,20661
DA:184,20661
DA:185,20661
DA:186,20661
DA:187,20661
DA:188,20661
DA:191,144276
DA:192,144276
DA:193,20661
DA:194,123615
DA:195,123615
DA:196,123615
DA:197,123615
DA:199,123615
DA:200,102954
DA:201,102954
DA:202,102954
DA:203,123615
DA:204,123615
DA:205,123615
DA:206,123615
DA:209,20661
DA:210,20661
DA:212,3913
DA:213,3913
DA:214,3913
DA:215,3913
DA:216,3913
DA:217,3913
DA:218,3913
DA:219,3913
DA:220,3913
DA:222,26722
DA:223,26722
DA:224,3913
DA:225,22809
DA:226,22809
DA:228,22809
DA:229,22809
DA:230,22809
DA:231,22809
DA:232,22809
DA:233,22809
DA:234,22809
DA:235,22809
DA:237,3913
DA:238,3913
DA:240,8
DA:241,8
DA:242,8
DA:243,8
DA:244,8
DA:245,8
DA:246,8
DA:247,8
DA:249,8
DA:250,8
DA:251,3
DA:252,5
DA:255,5
DA:256,5
DA:257,5
DA:258,5
DA:259,5
DA:261,5
DA:262,5
DA:263,3
DA:264,2
DA:267,2
DA:268,2
DA:269,2
DA:270,2
DA:273,2
DA:274,8
BRF:0
BRH:0
LF:206
LH:199
end_of_record
SF:/workspaces/digby/src/tree_dir_entry.rs
FN:61,_RNvNtNtCskvx6Wg1ZZUs_5digby14tree_dir_entry5testss_19test_tree_dir_entry
FN:22,_RNvMNtCskvx6Wg1ZZUs_5digby14tree_dir_entryNtB2_12TreeDirEntry10from_bytes
FN:43,_RNvMNtCskvx6Wg1ZZUs_5digby14tree_dir_entryNtB2_12TreeDirEntry11get_page_no
FN:51,_RNvMNtCskvx6Wg1ZZUs_5digby14tree_dir_entryNtB2_12TreeDirEntry13get_byte_size
FN:47,_RNvMNtCskvx6Wg1ZZUs_5digby14tree_dir_entryNtB2_12TreeDirEntry14get_serialized
FN:8,_RNvMNtCskvx6Wg1ZZUs_5digby14tree_dir_entryNtB2_12TreeDirEntry3new
FN:39,_RNvMNtCskvx6Wg1ZZUs_5digby14tree_dir_entryNtB2_12TreeDirEntry7get_key
FN:22,_RNvMNtCsgKx49t2KK1I_5digby14tree_dir_entryNtB2_12TreeDirEntry10from_bytes
FN:43,_RNvMNtCsgKx49t2KK1I_5digby14tree_dir_entryNtB2_12TreeDirEntry11get_page_no
FN:51,_RNvMNtCsgKx49t2KK1I_5digby14tree_dir_entryNtB2_12TreeDirEntry13get_byte_size
FN:47,_RNvMNtCsgKx49t2KK1I_5digby14tree_dir_entryNtB2_12TreeDirEntry14get_serialized
FN:8,_RNvMNtCsgKx49t2KK1I_5digby14tree_dir_entryNtB2_12TreeDirEntry3new
FN:39,_RNvMNtCsgKx49t2KK1I_5digby14tree_dir_entryNtB2_12TreeDirEntry7get_key
FNDA:1,_RNvNtNtCskvx6Wg1ZZUs_5digby14tree_dir_entry5testss_19test_tree_dir_entry
FNDA:1,_RNvMNtCskvx6Wg1ZZUs_5digby14tree_dir_entryNtB2_12TreeDirEntry10from_bytes
FNDA:383503,_RNvMNtCskvx6Wg1ZZUs_5digby14tree_dir_entryNtB2_12TreeDirEntry11get_page_no
FNDA:1,_RNvMNtCskvx6Wg1ZZUs_5digby14tree_dir_entryNtB2_12TreeDirEntry13get_byte_size
FNDA:1,_RNvMNtCskvx6Wg1ZZUs_5digby14tree_dir_entryNtB2_12TreeDirEntry14get_serialized
FNDA:365008,_RNvMNtCskvx6Wg1ZZUs_5digby14tree_dir_entryNtB2_12TreeDirEntry3new
FNDA:348073,_RNvMNtCskvx6Wg1ZZUs_5digby14tree_dir_entryNtB2_12TreeDirEntry7get_key
FNDA:0,_RNvMNtCsgKx49t2KK1I_5digby14tree_dir_entryNtB2_12TreeDirEntry10from_bytes
FNDA:41,_RNvMNtCsgKx49t2KK1I_5digby14tree_dir_entryNtB2_12TreeDirEntry11get_page_no
FNDA:0,_RNvMNtCsgKx49t2KK1I_5digby14tree_dir_entryNtB2_12TreeDirEntry13get_byte_size
FNDA:0,_RNvMNtCsgKx49t2KK1I_5digby14tree_dir_entryNtB2_12TreeDirEntry14get_serialized
FNDA:41,_RNvMNtCsgKx49t2KK1I_5digby14tree_dir_entryNtB2_12TreeDirEntry3new
FNDA:22,_RNvMNtCsgKx49t2KK1I_5digby14tree_dir_entryNtB2_12TreeDirEntry7get_key
FNF:7
FNH:7
DA:8,365049
DA:9,365049
DA:10,365049
DA:11,365049
DA:12,365049
DA:13,365049
DA:15,365049
DA:16,365049
DA:17,365049
DA:18,365049
DA:19,365049
DA:20,365049
DA:22,1
DA:26,1
DA:27,1
DA:28,1
DA:29,1
DA:30,1
DA:32,1
DA:33,1
DA:34,1
DA:35,1
DA:36,1
DA:37,1
DA:39,348095
DA:40,348095
DA:41,348095
DA:43,383544
DA:44,383544
DA:45,383544
DA:47,1
DA:48,1
DA:49,1
DA:51,1
DA:52,1
DA:53,1
DA:61,1
DA:62,1
DA:63,1
DA:64,1
DA:65,1
DA:66,1
DA:67,1
DA:68,1
DA:69,1
BRF:0
BRH:0
LF:45
LH:45
end_of_record
SF:/workspaces/digby/src/tree_dir_handler.rs
FN:113,_RNvNtNtCskvx6Wg1ZZUs_5digby16tree_dir_handler5testss_10test_add_1
FN:51,_RNvMNtCskvx6Wg1ZZUs_5digby16tree_dir_handlerNtB2_14TreeDirHandler13map_dir_pages
FN:68,_RNvMNtCskvx6Wg1ZZUs_5digby16tree_dir_handlerNtB2_14TreeDirHandler23handle_tree_dir_store_1
FN:14,_RNvMNtCskvx6Wg1ZZUs_5digby16tree_dir_handlerNtB2_14TreeDirHandler24handle_tree_leaf_store_1
FN:51,_RNvMNtCsgKx49t2KK1I_5digby16tree_dir_handlerNtB2_14TreeDirHandler13map_dir_pages
FN:68,_RNvMNtCsgKx49t2KK1I_5digby16tree_dir_handlerNtB2_14TreeDirHandler23handle_tree_dir_store_1
FN:14,_RNvMNtCsgKx49t2KK1I_5digby16tree_dir_handlerNtB2_14TreeDirHandler24handle_tree_leaf_store_1
FNDA:1,_RNvNtNtCskvx6Wg1ZZUs_5digby16tree_dir_handler5testss_10test_add_1
FNDA:164236,_RNvMNtCskvx6Wg1ZZUs_5digby16tree_dir_handlerNtB2_14TreeDirHandler13map_dir_pages
FNDA:119559,_RNvMNtCskvx6Wg1ZZUs_5digby16tree_dir_handlerNtB2_14TreeDirHandler23handle_tree_dir_store_1
FNDA:44679,_RNvMNtCskvx6Wg1ZZUs_5digby16tree_dir_handlerNtB2_14TreeDirHandler24handle_tree_leaf_store_1
FNDA:19,_RNvMNtCsgKx49t2KK1I_5digby16tree_dir_handlerNtB2_14TreeDirHandler13map_dir_pages
FNDA:0,_RNvMNtCsgKx49t2KK1I_5digby16tree_dir_handlerNtB2_14TreeDirHandler23handle_tree_dir_store_1
FNDA:19,_RNvMNtCsgKx49t2KK1I_5digby16tree_dir_handlerNtB2_14TreeDirHandler24handle_tree_leaf_store_1
FNF:4
FNH:4
DA:14,44698
DA:15,44698
DA:16,44698
DA:17,44698
DA:18,44698
DA:19,44698
DA:21,44698
DA:22,38240
DA:23,38240
DA:24,38240
DA:25,38240
DA:26,38240
DA:27,6458
DA:29,6458
DA:31,6458
DA:34,965
DA:37,5493
DA:39,6458
DA:40,6458
DA:41,6458
DA:42,6458
DA:43,6458
DA:44,6458
DA:45,6458
DA:46,6458
DA:48,6458
DA:49,44698
DA:51,164255
DA:52,164255
DA:53,164255
DA:54,164255
DA:55,164255
DA:56,164255
DA:57,337757
DA:58,173502
DA:59,173502
DA:60,164208
DA:61,164208
DA:62,173502
DA:63,173502
DA:64,173502
DA:66,164255
DA:68,119559
DA:69,119559
DA:70,119559
DA:71,119559
DA:72,119559
DA:73,119559
DA:75,119559
DA:76,116770
DA:77,116770
DA:78,116770
DA:79,116770
DA:80,116770
DA:81,2789
DA:84,2789
DA:86,2789
DA:88,637
DA:90,2152
DA:92,2789
DA:93,2789
DA:94,2789
DA:95,2789
DA:96,2789
DA:97,2789
DA:98,2789
DA:99,2789
DA:101,2789
DA:102,119559
DA:113,1
DA:114,1
DA:115,1
DA:116,1
DA:117,1
DA:118,1
DA:119,1
DA:120,1
DA:121,1
DA:123,1
DA:124,1
DA:125,1
DA:126,1
DA:128,1
DA:129,1
DA:130,1
DA:132,1
DA:133,3
DA:134,2
DA:135,2
DA:136,2
DA:137,2
DA:138,2
DA:139,2
DA:141,1
DA:143,1
DA:144,1
DA:145,1
DA:146,1
DA:147,1
DA:149,1
DA:150,1
DA:151,1
DA:152,1
DA:153,1
DA:154,1
DA:156,1
DA:157,2
DA:158,1
DA:159,1
DA:160,1
DA:161,1
DA:162,1
DA:163,1
DA:165,1
DA:166,1
DA:167,1
DA:168,1
DA:169,1
BRF:0
BRH:0
LF:118
LH:118
end_of_record
SF:/workspaces/digby/src/tuple.rs
FN:177,_RNvNtNtCskvx6Wg1ZZUs_5digby5tuple5testss_10test_tuple
FN:190,_RNvNtNtCskvx6Wg1ZZUs_5digby5tuple5testss_21test_tuple_from_bytes
FN:208,_RNvNtNtCskvx6Wg1ZZUs_5digby5tuple5testss_22test_overflow_try_from
FN:243,_RNvNtNtCskvx6Wg1ZZUs_5digby5tuple5testss_23test_tuple_get_overflow
FN:216,_RNvNtNtCskvx6Wg1ZZUs_5digby5tuple5testss_24test_tuple_new_large_key
FN:223,_RNvNtNtCskvx6Wg1ZZUs_5digby5tuple5testss_26test_tuple_new_large_value
FN:230,_RNvNtNtCskvx6Wg1ZZUs_5digby5tuple5testss_38test_tuple_new_with_overflow_large_key
FN:237,_RNvNtNtCskvx6Wg1ZZUs_5digby5tuple5testss_40test_tuple_new_with_overflow_large_value
FN:163,_RNvMs0_NtCskvx6Wg1ZZUs_5digby5tupleNtB5_5Tuple10from_bytes
FN:144,_RNvMs0_NtCskvx6Wg1ZZUs_5digby5tupleNtB5_5Tuple17new_with_overflow
FN:125,_RNvMs0_NtCskvx6Wg1ZZUs_5digby5tupleNtB5_5Tuple3new
FN:167,_RNvMs0_NtCskvx6Wg1ZZUs_5digby5tupleNtB5_5Tuple6equals
FN:53,_RNvXNtCskvx6Wg1ZZUs_5digby5tupleNtB2_8OverflowINtNtCs1X3mq3Q8b4t_4core7convert7TryFromhE8try_from
FN:102,_RNvXs_NtCskvx6Wg1ZZUs_5digby5tupleNtB4_5TupleNtB4_10TupleTrait11get_version
FN:115,_RNvXs_NtCskvx6Wg1ZZUs_5digby5tupleNtB4_5TupleNtB4_10TupleTrait12get_overflow
FN:111,_RNvXs_NtCskvx6Wg1ZZUs_5digby5tupleNtB4_5TupleNtB4_10TupleTrait13get_byte_size
FN:107,_RNvXs_NtCskvx6Wg1ZZUs_5digby5tupleNtB4_5TupleNtB4_10TupleTrait14get_serialized
FN:97,_RNvXs_NtCskvx6Wg1ZZUs_5digby5tupleNtB4_5TupleNtB4_10TupleTrait17get_version_value
FN:87,_RNvXs_NtCskvx6Wg1ZZUs_5digby5tupleNtB4_5TupleNtB4_10TupleTrait7get_key
FN:92,_RNvXs_NtCskvx6Wg1ZZUs_5digby5tupleNtB4_5TupleNtB4_10TupleTrait9get_value
FN:163,_RNvMs0_NtCsgKx49t2KK1I_5digby5tupleNtB5_5Tuple10from_bytes
FN:144,_RNvMs0_NtCsgKx49t2KK1I_5digby5tupleNtB5_5Tuple17new_with_overflow
FN:125,_RNvMs0_NtCsgKx49t2KK1I_5digby5tupleNtB5_5Tuple3new
FN:167,_RNvMs0_NtCsgKx49t2KK1I_5digby5tupleNtB5_5Tuple6equals
FN:53,_RNvXNtCsgKx49t2KK1I_5digby5tupleNtB2_8OverflowINtNtCs1X3mq3Q8b4t_4core7convert7TryFromhE8try_from
FN:102,_RNvXs_NtCsgKx49t2KK1I_5digby5tupleNtB4_5TupleNtB4_10TupleTrait11get_version
FN:115,_RNvXs_NtCsgKx49t2KK1I_5digby5tupleNtB4_5TupleNtB4_10TupleTrait12get_overflow
FN:111,_RNvXs_NtCsgKx49t2KK1I_5digby5tupleNtB4_5TupleNtB4_10TupleTrait13get_byte_size
FN:107,_RNvXs_NtCsgKx49t2KK1I_5digby5tupleNtB4_5TupleNtB4_10TupleTrait14get_serialized
FN:97,_RNvXs_NtCsgKx49t2KK1I_5digby5tupleNtB4_5TupleNtB4_10TupleTrait17get_version_value
FN:87,_RNvXs_NtCsgKx49t2KK1I_5digby5tupleNtB4_5TupleNtB4_10TupleTrait7get_key
FN:92,_RNvXs_NtCsgKx49t2KK1I_5digby5tupleNtB4_5TupleNtB4_10TupleTrait9get_value
FNDA:1,_RNvNtNtCskvx6Wg1ZZUs_5digby5tuple5testss_10test_tuple
FNDA:1,_RNvNtNtCskvx6Wg1ZZUs_5digby5tuple5testss_21test_tuple_from_bytes
FNDA:1,_RNvNtNtCskvx6Wg1ZZUs_5digby5tuple5testss_22test_overflow_try_from
FNDA:1,_RNvNtNtCskvx6Wg1ZZUs_5digby5tuple5testss_23test_tuple_get_overflow
FNDA:1,_RNvNtNtCskvx6Wg1ZZUs_5digby5tuple5testss_24test_tuple_new_large_key
FNDA:1,_RNvNtNtCskvx6Wg1ZZUs_5digby5tuple5testss_26test_tuple_new_large_value
FNDA:1,_RNvNtNtCskvx6Wg1ZZUs_5digby5tuple5testss_38test_tuple_new_with_overflow_large_key
FNDA:1,_RNvNtNtCskvx6Wg1ZZUs_5digby5tuple5testss_40test_tuple_new_with_overflow_large_value
FNDA:1,_RNvMs0_NtCskvx6Wg1ZZUs_5digby5tupleNtB5_5Tuple10from_bytes
FNDA:16867129,_RNvMs0_NtCskvx6Wg1ZZUs_5digby5tupleNtB5_5Tuple17new_with_overflow
FNDA:45307,_RNvMs0_NtCskvx6Wg1ZZUs_5digby5tupleNtB5_5Tuple3new
FNDA:69,_RNvMs0_NtCskvx6Wg1ZZUs_5digby5tupleNtB5_5Tuple6equals
FNDA:33714255,_RNvXNtCskvx6Wg1ZZUs_5digby5tupleNtB2_8OverflowINtNtCs1X3mq3Q8b4t_4core7convert7TryFromhE8try_from
FNDA:2,_RNvXs_NtCskvx6Wg1ZZUs_5digby5tupleNtB4_5TupleNtB4_10TupleTrait11get_version
FNDA:16847132,_RNvXs_NtCskvx6Wg1ZZUs_5digby5tupleNtB4_5TupleNtB4_10TupleTrait12get_overflow
FNDA:1,_RNvXs_NtCskvx6Wg1ZZUs_5digby5tupleNtB4_5TupleNtB4_10TupleTrait13get_byte_size
FNDA:2,_RNvXs_NtCskvx6Wg1ZZUs_5digby5tupleNtB4_5TupleNtB4_10TupleTrait14get_serialized
FNDA:151528,_RNvXs_NtCskvx6Wg1ZZUs_5digby5tupleNtB4_5TupleNtB4_10TupleTrait17get_version_value
FNDA:162325,_RNvXs_NtCskvx6Wg1ZZUs_5digby5tupleNtB4_5TupleNtB4_10TupleTrait7get_key
FNDA:16822289,_RNvXs_NtCskvx6Wg1ZZUs_5digby5tupleNtB4_5TupleNtB4_10TupleTrait9get_value
FNDA:0,_RNvMs0_NtCsgKx49t2KK1I_5digby5tupleNtB5_5Tuple10from_bytes
FNDA:145,_RNvMs0_NtCsgKx49t2KK1I_5digby5tupleNtB5_5Tuple17new_with_overflow
FNDA:15,_RNvMs0_NtCsgKx49t2KK1I_5digby5tupleNtB5_5Tuple3new
FNDA:0,_RNvMs0_NtCsgKx49t2KK1I_5digby5tupleNtB5_5Tuple6equals
FNDA:290,_RNvXNtCsgKx49t2KK1I_5digby5tupleNtB2_8OverflowINtNtCs1X3mq3Q8b4t_4core7convert7TryFromhE8try_from
FNDA:0,_RNvXs_NtCsgKx49t2KK1I_5digby5tupleNtB4_5TupleNtB4_10TupleTrait11get_version
FNDA:110,_RNvXs_NtCsgKx49t2KK1I_5digby5tupleNtB4_5TupleNtB4_10TupleTrait12get_overflow
FNDA:0,_RNvXs_NtCsgKx49t2KK1I_5digby5tupleNtB4_5TupleNtB4_10TupleTrait13get_byte_size
FNDA:0,_RNvXs_NtCsgKx49t2KK1I_5digby5tupleNtB4_5TupleNtB4_10TupleTrait14get_serialized
FNDA:103,_RNvXs_NtCsgKx49t2KK1I_5digby5tupleNtB4_5TupleNtB4_10TupleTrait17get_version_value
FNDA:74,_RNvXs_NtCsgKx49t2KK1I_5digby5tupleNtB4_5TupleNtB4_10TupleTrait7get_key
FNDA:127,_RNvXs_NtCsgKx49t2KK1I_5digby5tupleNtB4_5TupleNtB4_10TupleTrait9get_value
FNF:20
FNH:20
DA:53,33714545
DA:54,33714545
DA:55,33714391
DA:56,2
DA:57,1
DA:58,143
DA:59,2
DA:60,5
DA:61,1
DA:63,33714545
DA:87,162399
DA:88,162399
DA:89,162399
DA:90,162399
DA:92,16822416
DA:93,16822416
DA:94,16822416
DA:95,16822416
DA:97,151631
DA:98,151631
DA:99,151631
DA:100,151631
DA:102,2
DA:103,2
DA:104,2
DA:105,2
DA:107,2
DA:108,2
DA:109,2
DA:111,1
DA:112,1
DA:113,1
DA:115,16847242
DA:116,16847242
DA:117,16847242
DA:118,16847242
DA:120,16847242
DA:121,16847242
DA:125,45322
DA:126,45322
DA:127,45322
DA:128,1
DA:130,45321
DA:131,45321
DA:132,1
DA:134,45320
DA:135,45320
DA:136,45320
DA:137,45320
DA:138,45320
DA:139,45320
DA:140,45320
DA:141,45320
DA:142,45320
DA:144,16867274
DA:145,16867274
DA:146,16867274
DA:147,1
DA:149,16867273
DA:150,16867273
DA:151,1
DA:153,16867272
DA:154,16867272
DA:155,16867272
DA:156,16867272
DA:157,16867272
DA:158,16867272
DA:159,16867272
DA:160,16867272
DA:161,16867272
DA:163,1
DA:164,1
DA:165,1
DA:167,69
DA:168,69
DA:169,69
DA:177,1
DA:178,1
DA:179,1
DA:180,1
DA:182,1
DA:183,1
DA:184,1
DA:185,1
DA:186,1
DA:187,1
DA:190,1
DA:191,1
DA:192,1
DA:193,1
DA:195,1
DA:196,1
DA:198,1
DA:199,1
DA:200,1
DA:201,1
DA:202,1
DA:203,1
DA:205,1
DA:208,1
DA:209,1
DA:210,1
DA:211,1
DA:212,1
DA:216,1
DA:217,1
DA:218,1
DA:219,1
DA:223,1
DA:224,1
DA:225,1
DA:226,1
DA:230,1
DA:231,1
DA:232,1
DA:233,1
DA:237,1
DA:238,1
DA:239,1
DA:240,1
DA:243,1
DA:244,1
DA:245,1
DA:246,1
BRF:0
BRH:0
LF:124
LH:124
end_of_record
SF:/workspaces/digby/src/tuple_processor.rs
FN:149,_RNvNtNtCskvx6Wg1ZZUs_5digby15tuple_processor5testss_19test_generate_tuple
FN:140,_RNvNtNtCskvx6Wg1ZZUs_5digby15tuple_processor5testss_23test_generate_short_key
FN:131,_RNvNtNtCskvx6Wg1ZZUs_5digby15tuple_processor5testss_34test_tuple_processor_oversized_key
FN:18,_RNvMNtCskvx6Wg1ZZUs_5digby15tuple_processorNtB2_14TupleProcessor14generate_tuple
FN:102,_RNvMNtCskvx6Wg1ZZUs_5digby15tuple_processorNtB2_14TupleProcessor16is_oversized_key
FN:109,_RNvMNtCskvx6Wg1ZZUs_5digby15tuple_processorNtB2_14TupleProcessor18generate_short_key
FN:18,_RNvMNtCsgKx49t2KK1I_5digby15tuple_processorNtB2_14TupleProcessor14generate_tuple
FN:102,_RNvMNtCsgKx49t2KK1I_5digby15tuple_processorNtB2_14TupleProcessor16is_oversized_key
FN:109,_RNvMNtCsgKx49t2KK1I_5digby15tuple_processorNtB2_14TupleProcessor18generate_short_key
FNDA:1,_RNvNtNtCskvx6Wg1ZZUs_5digby15tuple_processor5testss_19test_generate_tuple
FNDA:1,_RNvNtNtCskvx6Wg1ZZUs_5digby15tuple_processor5testss_23test_generate_short_key
FNDA:1,_RNvNtNtCskvx6Wg1ZZUs_5digby15tuple_processor5testss_34test_tuple_processor_oversized_key
FNDA:24848,_RNvMNtCskvx6Wg1ZZUs_5digby15tuple_processorNtB2_14TupleProcessor14generate_tuple
FNDA:16896572,_RNvMNtCskvx6Wg1ZZUs_5digby15tuple_processorNtB2_14TupleProcessor16is_oversized_key
FNDA:4,_RNvMNtCskvx6Wg1ZZUs_5digby15tuple_processorNtB2_14TupleProcessor18generate_short_key
FNDA:50,_RNvMNtCsgKx49t2KK1I_5digby15tuple_processorNtB2_14TupleProcessor14generate_tuple
FNDA:205,_RNvMNtCsgKx49t2KK1I_5digby15tuple_processorNtB2_14TupleProcessor16is_oversized_key
FNDA:109,_RNvMNtCsgKx49t2KK1I_5digby15tuple_processorNtB2_14TupleProcessor18generate_short_key
FNF:6
FNH:6
DA:18,24898
DA:19,24898
DA:20,24898
DA:21,24898
DA:22,24898
DA:23,24898
DA:24,24898
DA:25,24898
DA:26,24898
DA:27,24858
DA:28,40
DA:29,40
DA:30,40
DA:32,40
DA:33,40
DA:34,4
DA:36,4
DA:37,1
DA:39,1
DA:40,1
DA:41,1
DA:42,1
DA:43,1
DA:45,3
DA:46,36
DA:49,39
DA:50,37
DA:51,37
DA:52,1
DA:53,1
DA:54,1
DA:57,39
DA:58,3
DA:59,3
DA:60,3
DA:61,3
DA:62,3
DA:63,3
DA:64,3
DA:70,36
DA:74,39
DA:75,39
DA:76,39
DA:77,39
DA:78,39
DA:84,39
DA:85,38
DA:86,38
DA:87,38
DA:88,38
DA:89,38
DA:90,38
DA:92,1
DA:94,1
DA:95,1
DA:96,1
DA:97,1
DA:98,1
DA:100,24898
DA:102,16896777
DA:103,16896777
DA:104,192
DA:105,16896585
DA:106,16896585
DA:107,16896777
DA:109,113
DA:110,113
DA:111,113
DA:112,113
DA:113,113
DA:114,113
DA:115,113
DA:116,113
DA:117,113
DA:131,1
DA:132,1
DA:133,1
DA:135,1
DA:136,1
DA:137,1
DA:140,1
DA:141,1
DA:142,1
DA:143,1
DA:144,1
DA:145,1
DA:146,1
DA:149,1
DA:150,1
DA:151,1
DA:152,1
DA:153,1
DA:154,1
DA:155,1
DA:156,1
DA:157,1
DA:158,1
DA:159,1
DA:160,1
DA:161,1
DA:163,1
DA:164,1
DA:165,1
DA:166,1
DA:167,1
DA:168,1
DA:169,1
DA:170,1
DA:173,1
DA:175,1
DA:176,1
DA:177,1
DA:178,1
DA:179,1
DA:180,1
DA:181,1
DA:183,1
DA:185,1
DA:187,1
DA:188,1
DA:189,1
DA:190,1
DA:191,1
DA:192,1
DA:193,1
DA:195,1
DA:197,1
DA:199,1
DA:200,1
DA:201,1
DA:202,1
DA:203,1
DA:204,1
DA:206,1
DA:208,1
DA:210,1
DA:211,1
DA:212,1
DA:213,1
DA:214,1
DA:215,1
DA:217,1
DA:219,1
DA:221,1
DA:222,1
DA:223,1
DA:224,1
DA:225,1
DA:227,1
DA:229,1
DA:231,1
DA:232,1
DA:233,1
DA:234,1
DA:235,1
DA:237,1
DA:239,1
DA:240,1
DA:243,1
BRF:0
BRH:0
LF:159
LH:159
end_of_record
SF:/workspaces/digby/src/version_holder.rs
FN:43,_RNvNtNtCskvx6Wg1ZZUs_5digby14version_holder5testss_12test_get_set
FN:50,_RNvNtNtCskvx6Wg1ZZUs_5digby14version_holder5testss_26test_get_set_large_version
FN:11,_RNvMNtCskvx6Wg1ZZUs_5digby14version_holderNtB2_13VersionHolder10from_bytes
FN:33,_RNvMNtCskvx6Wg1ZZUs_5digby14version_holderNtB2_13VersionHolder11get_version
FN:29,_RNvMNtCskvx6Wg1ZZUs_5digby14version_holderNtB2_13VersionHolder11set_version
FN:7,_RNvMNtCskvx6Wg1ZZUs_5digby14version_holderNtB2_13VersionHolder3new
FN:17,_RNvMNtCskvx6Wg1ZZUs_5digby14version_holderNtB2_13VersionHolder9get_bytes
FN:21,_RNvMNtCskvx6Wg1ZZUs_5digby14version_holderNtB2_13VersionHolder9get_flags
FN:25,_RNvMNtCskvx6Wg1ZZUs_5digby14version_holderNtB2_13VersionHolder9set_flags
FN:11,_RNvMNtCsgKx49t2KK1I_5digby14version_holderNtB2_13VersionHolder10from_bytes
FN:33,_RNvMNtCsgKx49t2KK1I_5digby14version_holderNtB2_13VersionHolder11get_version
FN:29,_RNvMNtCsgKx49t2KK1I_5digby14version_holderNtB2_13VersionHolder11set_version
FN:7,_RNvMNtCsgKx49t2KK1I_5digby14version_holderNtB2_13VersionHolder3new
FN:17,_RNvMNtCsgKx49t2KK1I_5digby14version_holderNtB2_13VersionHolder9get_bytes
FN:21,_RNvMNtCsgKx49t2KK1I_5digby14version_holderNtB2_13VersionHolder9get_flags
FN:25,_RNvMNtCsgKx49t2KK1I_5digby14version_holderNtB2_13VersionHolder9set_flags
FNDA:1,_RNvNtNtCskvx6Wg1ZZUs_5digby14version_holder5testss_12test_get_set
FNDA:1,_RNvNtNtCskvx6Wg1ZZUs_5digby14version_holder5testss_26test_get_set_large_version
FNDA:346048971,_RNvMNtCskvx6Wg1ZZUs_5digby14version_holderNtB2_13VersionHolder10from_bytes
FNDA:50779401,_RNvMNtCskvx6Wg1ZZUs_5digby14version_holderNtB2_13VersionHolder11get_version
FNDA:588987,_RNvMNtCskvx6Wg1ZZUs_5digby14version_holderNtB2_13VersionHolder11set_version
FNDA:16912441,_RNvMNtCskvx6Wg1ZZUs_5digby14version_holderNtB2_13VersionHolder3new
FNDA:17633943,_RNvMNtCskvx6Wg1ZZUs_5digby14version_holderNtB2_13VersionHolder9get_bytes
FNDA:311415192,_RNvMNtCskvx6Wg1ZZUs_5digby14version_holderNtB2_13VersionHolder9get_flags
FNDA:132519,_RNvMNtCskvx6Wg1ZZUs_5digby14version_holderNtB2_13VersionHolder9set_flags
FNDA:2483,_RNvMNtCsgKx49t2KK1I_5digby14version_holderNtB2_13VersionHolder10from_bytes
FNDA:578,_RNvMNtCsgKx49t2KK1I_5digby14version_holderNtB2_13VersionHolder11get_version
FNDA:330,_RNvMNtCsgKx49t2KK1I_5digby14version_holderNtB2_13VersionHolder11set_version
FNDA:195,_RNvMNtCsgKx49t2KK1I_5digby14version_holderNtB2_13VersionHolder3new
FNDA:902,_RNvMNtCsgKx49t2KK1I_5digby14version_holderNtB2_13VersionHolder9get_bytes
FNDA:1308,_RNvMNtCsgKx49t2KK1I_5digby14version_holderNtB2_13VersionHolder9get_flags
FNDA:377,_RNvMNtCsgKx49t2KK1I_5digby14version_holderNtB2_13VersionHolder9set_flags
FNF:9
FNH:9
DA:7,16912636
DA:8,16912636
DA:9,16912636
DA:11,346051454
DA:12,346051454
DA:13,346051454
DA:14,346051454
DA:15,346051454
DA:17,17634845
DA:18,17634845
DA:19,17634845
DA:21,311416500
DA:22,311416500
DA:23,311416500
DA:25,132896
DA:26,132896
DA:27,132896
DA:29,589317
DA:30,589317
DA:31,589317
DA:33,50779979
DA:34,50779979
DA:35,50779979
DA:43,1
DA:44,1
DA:45,1
DA:46,1
DA:47,1
DA:50,1
DA:52,1
DA:53,1
DA:54,1
DA:55,1
DA:57,1
DA:58,1
DA:59,1
DA:60,1
DA:61,1
BRF:0
BRH:0
LF:38
LH:38
end_of_record
SF:/workspaces/digby/src/xxhash_sanity.rs
FN:11,_RNvMNtCskvx6Wg1ZZUs_5digby13xxhash_sanityNtB2_12XxHashSanity12set_checksum
FN:21,_RNvMNtCskvx6Wg1ZZUs_5digby13xxhash_sanityNtB2_12XxHashSanity15verify_checksum
FN:11,_RNvMNtCsgKx49t2KK1I_5digby13xxhash_sanityNtB2_12XxHashSanity12set_checksum
FN:21,_RNvMNtCsgKx49t2KK1I_5digby13xxhash_sanityNtB2_12XxHashSanity15verify_checksum
FNDA:580704,_RNvMNtCskvx6Wg1ZZUs_5digby13xxhash_sanityNtB2_12XxHashSanity12set_checksum
FNDA:155790585,_RNvMNtCskvx6Wg1ZZUs_5digby13xxhash_sanityNtB2_12XxHashSanity15verify_checksum
FNDA:546,_RNvMNtCsgKx49t2KK1I_5digby13xxhash_sanityNtB2_12XxHashSanity12set_checksum
FNDA:791,_RNvMNtCsgKx49t2KK1I_5digby13xxhash_sanityNtB2_12XxHashSanity15verify_checksum
FNF:2
FNH:2
DA:11,581250
DA:12,581250
DA:13,581250
DA:14,581250
DA:15,581250
DA:16,581250
DA:17,581250
DA:18,581250
DA:19,581250
DA:21,155791376
DA:22,155791376
DA:23,155791376
DA:24,155791376
DA:25,155791376
DA:26,155791376
DA:27,155791376
DA:28,155791376
DA:29,0
DA:30,0
DA:32,155791376
BRF:0
BRH:0
LF:20
LH:18
end_of_record